
RTOS_variable_blinking.elf:     file format elf32-littlearm

Sections:
Idx Name          Size      VMA       LMA       File off  Algn
  0 .isr_vector   000000b4  08000000  08000000  00001000  2**0
                  CONTENTS, ALLOC, LOAD, READONLY, DATA
  1 .text         000005f4  080000c0  080000c0  000010c0  2**4
                  CONTENTS, ALLOC, LOAD, READONLY, CODE
  2 .rodata       00000000  080006b4  080006bc  000016bc  2**0
                  CONTENTS, ALLOC, LOAD, DATA
  3 .ARM.extab    00000000  080006b4  080006b4  000016bc  2**0
                  CONTENTS, READONLY
  4 .ARM          00000000  080006b4  080006b4  000016bc  2**0
                  CONTENTS, READONLY
  5 .preinit_array 00000000  080006b4  080006bc  000016bc  2**0
                  CONTENTS, ALLOC, LOAD, DATA
  6 .init_array   00000004  080006b4  080006b4  000016b4  2**2
                  CONTENTS, ALLOC, LOAD, READONLY, DATA
  7 .fini_array   00000004  080006b8  080006b8  000016b8  2**2
                  CONTENTS, ALLOC, LOAD, READONLY, DATA
  8 .data         00000000  20000000  20000000  000016bc  2**0
                  CONTENTS, ALLOC, LOAD, DATA
  9 .bss          000000a8  20000000  080006bc  00002000  2**2
                  ALLOC
 10 ._user_heap_stack 00000600  200000a8  080006bc  000020a8  2**0
                  ALLOC
 11 .ARM.attributes 00000028  00000000  00000000  000016bc  2**0
                  CONTENTS, READONLY
 12 .debug_info   000024fc  00000000  00000000  000016e4  2**0
                  CONTENTS, READONLY, DEBUGGING, OCTETS
 13 .debug_abbrev 00000736  00000000  00000000  00003be0  2**0
                  CONTENTS, READONLY, DEBUGGING, OCTETS
 14 .debug_aranges 00000320  00000000  00000000  00004318  2**3
                  CONTENTS, READONLY, DEBUGGING, OCTETS
 15 .debug_rnglists 00000265  00000000  00000000  00004638  2**0
                  CONTENTS, READONLY, DEBUGGING, OCTETS
 16 .debug_macro  0000a2c9  00000000  00000000  0000489d  2**0
                  CONTENTS, READONLY, DEBUGGING, OCTETS
 17 .debug_line   000032ef  00000000  00000000  0000eb66  2**0
                  CONTENTS, READONLY, DEBUGGING, OCTETS
 18 .debug_str    0004d9c9  00000000  00000000  00011e55  2**0
                  CONTENTS, READONLY, DEBUGGING, OCTETS
 19 .comment      00000043  00000000  00000000  0005f81e  2**0
                  CONTENTS, READONLY
 20 .debug_frame  000009c4  00000000  00000000  0005f864  2**2
                  CONTENTS, READONLY, DEBUGGING, OCTETS
 21 .debug_line_str 0000006a  00000000  00000000  00060228  2**0
                  CONTENTS, READONLY, DEBUGGING, OCTETS

Disassembly of section .text:

080000c0 <__do_global_dtors_aux>:
 80000c0:	b510      	push	{r4, lr}
 80000c2:	4c06      	ldr	r4, [pc, #24]	@ (80000dc <__do_global_dtors_aux+0x1c>)
 80000c4:	7823      	ldrb	r3, [r4, #0]
 80000c6:	2b00      	cmp	r3, #0
 80000c8:	d107      	bne.n	80000da <__do_global_dtors_aux+0x1a>
 80000ca:	4b05      	ldr	r3, [pc, #20]	@ (80000e0 <__do_global_dtors_aux+0x20>)
 80000cc:	2b00      	cmp	r3, #0
 80000ce:	d002      	beq.n	80000d6 <__do_global_dtors_aux+0x16>
 80000d0:	4804      	ldr	r0, [pc, #16]	@ (80000e4 <__do_global_dtors_aux+0x24>)
 80000d2:	e000      	b.n	80000d6 <__do_global_dtors_aux+0x16>
 80000d4:	bf00      	nop
 80000d6:	2301      	movs	r3, #1
 80000d8:	7023      	strb	r3, [r4, #0]
 80000da:	bd10      	pop	{r4, pc}
 80000dc:	20000000 	.word	0x20000000
 80000e0:	00000000 	.word	0x00000000
 80000e4:	0800069c 	.word	0x0800069c

080000e8 <frame_dummy>:
 80000e8:	4b04      	ldr	r3, [pc, #16]	@ (80000fc <frame_dummy+0x14>)
 80000ea:	b510      	push	{r4, lr}
 80000ec:	2b00      	cmp	r3, #0
 80000ee:	d003      	beq.n	80000f8 <frame_dummy+0x10>
 80000f0:	4903      	ldr	r1, [pc, #12]	@ (8000100 <frame_dummy+0x18>)
 80000f2:	4804      	ldr	r0, [pc, #16]	@ (8000104 <frame_dummy+0x1c>)
 80000f4:	e000      	b.n	80000f8 <frame_dummy+0x10>
 80000f6:	bf00      	nop
 80000f8:	bd10      	pop	{r4, pc}
 80000fa:	46c0      	nop			@ (mov r8, r8)
 80000fc:	00000000 	.word	0x00000000
 8000100:	20000004 	.word	0x20000004
 8000104:	0800069c 	.word	0x0800069c

08000108 <xTaskIncrementTick>:

#endif /* INCLUDE_xTaskAbortDelay */
/*----------------------------------------------------------*/

BaseType_t xTaskIncrementTick( void )
{
 8000108:	b580      	push	{r7, lr}
 800010a:	b088      	sub	sp, #32
 800010c:	af00      	add	r7, sp, #0
    TCB_t * pxTCB;
    TickType_t xItemValue;
    BaseType_t xSwitchRequired = pdFALSE;
 800010e:	2300      	movs	r3, #0
 8000110:	61fb      	str	r3, [r7, #28]

    /* Tick increment should occur on every kernel timer event. Core 0 has the
     * responsibility to increment the tick, or increment the pended ticks if the
     * scheduler is suspended.  If pended ticks is greater than zero, the core that
     * calls xTaskResumeAll has the responsibility to increment the tick. */
    if( uxSchedulerSuspended == ( UBaseType_t ) 0U )
 8000112:	4b75      	ldr	r3, [pc, #468]	@ (80002e8 <xTaskIncrementTick+0x1e0>)
 8000114:	681b      	ldr	r3, [r3, #0]
 8000116:	2b00      	cmp	r3, #0
 8000118:	d000      	beq.n	800011c <xTaskIncrementTick+0x14>
 800011a:	e0db      	b.n	80002d4 <xTaskIncrementTick+0x1cc>
    {
        /* Minor optimisation.  The tick count cannot change in this
         * block. */
        const TickType_t xConstTickCount = xTickCount + ( TickType_t ) 1;
 800011c:	4b73      	ldr	r3, [pc, #460]	@ (80002ec <xTaskIncrementTick+0x1e4>)
 800011e:	681b      	ldr	r3, [r3, #0]
 8000120:	3301      	adds	r3, #1
 8000122:	61bb      	str	r3, [r7, #24]

        /* Increment the RTOS tick, switching the delayed and overflowed
         * delayed lists if it wraps to 0. */
        xTickCount = xConstTickCount;
 8000124:	4b71      	ldr	r3, [pc, #452]	@ (80002ec <xTaskIncrementTick+0x1e4>)
 8000126:	69ba      	ldr	r2, [r7, #24]
 8000128:	601a      	str	r2, [r3, #0]

        if( xConstTickCount == ( TickType_t ) 0U )
 800012a:	69bb      	ldr	r3, [r7, #24]
 800012c:	2b00      	cmp	r3, #0
 800012e:	d110      	bne.n	8000152 <xTaskIncrementTick+0x4a>
        {
            taskSWITCH_DELAYED_LISTS();
 8000130:	4b6f      	ldr	r3, [pc, #444]	@ (80002f0 <xTaskIncrementTick+0x1e8>)
 8000132:	681b      	ldr	r3, [r3, #0]
 8000134:	617b      	str	r3, [r7, #20]
 8000136:	4b6f      	ldr	r3, [pc, #444]	@ (80002f4 <xTaskIncrementTick+0x1ec>)
 8000138:	681a      	ldr	r2, [r3, #0]
 800013a:	4b6d      	ldr	r3, [pc, #436]	@ (80002f0 <xTaskIncrementTick+0x1e8>)
 800013c:	601a      	str	r2, [r3, #0]
 800013e:	4b6d      	ldr	r3, [pc, #436]	@ (80002f4 <xTaskIncrementTick+0x1ec>)
 8000140:	697a      	ldr	r2, [r7, #20]
 8000142:	601a      	str	r2, [r3, #0]
 8000144:	4b6c      	ldr	r3, [pc, #432]	@ (80002f8 <xTaskIncrementTick+0x1f0>)
 8000146:	681b      	ldr	r3, [r3, #0]
 8000148:	1c5a      	adds	r2, r3, #1
 800014a:	4b6b      	ldr	r3, [pc, #428]	@ (80002f8 <xTaskIncrementTick+0x1f0>)
 800014c:	601a      	str	r2, [r3, #0]
 800014e:	f000 f92f 	bl	80003b0 <prvResetNextTaskUnblockTime>

        /* See if this tick has made a timeout expire.  Tasks are stored in
         * the  queue in the order of their wake time - meaning once one task
         * has been found whose block time has not expired there is no need to
         * look any further down the list. */
        if( xConstTickCount >= xNextTaskUnblockTime )
 8000152:	4b6a      	ldr	r3, [pc, #424]	@ (80002fc <xTaskIncrementTick+0x1f4>)
 8000154:	681b      	ldr	r3, [r3, #0]
 8000156:	69ba      	ldr	r2, [r7, #24]
 8000158:	429a      	cmp	r2, r3
 800015a:	d200      	bcs.n	800015e <xTaskIncrementTick+0x56>
 800015c:	e0a6      	b.n	80002ac <xTaskIncrementTick+0x1a4>
        {
            for( ; ; )
            {
                if( listLIST_IS_EMPTY( pxDelayedTaskList ) != pdFALSE )
 800015e:	4b64      	ldr	r3, [pc, #400]	@ (80002f0 <xTaskIncrementTick+0x1e8>)
 8000160:	681b      	ldr	r3, [r3, #0]
 8000162:	681b      	ldr	r3, [r3, #0]
 8000164:	2b00      	cmp	r3, #0
 8000166:	d104      	bne.n	8000172 <xTaskIncrementTick+0x6a>
                    /* The delayed list is empty.  Set xNextTaskUnblockTime
                     * to the maximum possible value so it is extremely
                     * unlikely that the
                     * if( xTickCount >= xNextTaskUnblockTime ) test will pass
                     * next time through. */
                    xNextTaskUnblockTime = portMAX_DELAY;
 8000168:	4b64      	ldr	r3, [pc, #400]	@ (80002fc <xTaskIncrementTick+0x1f4>)
 800016a:	2201      	movs	r2, #1
 800016c:	4252      	negs	r2, r2
 800016e:	601a      	str	r2, [r3, #0]
                    break;
 8000170:	e09c      	b.n	80002ac <xTaskIncrementTick+0x1a4>
                     * at which the task at the head of the delayed list must
                     * be removed from the Blocked state. */
                    /* MISRA Ref 11.5.3 [Void pointer assignment] */
                    /* More details at: https://github.com/FreeRTOS/FreeRTOS-Kernel/blob/main/MISRA.md#rule-115 */
                    /* coverity[misra_c_2012_rule_11_5_violation] */
                    pxTCB = listGET_OWNER_OF_HEAD_ENTRY( pxDelayedTaskList );
 8000172:	4b5f      	ldr	r3, [pc, #380]	@ (80002f0 <xTaskIncrementTick+0x1e8>)
 8000174:	681b      	ldr	r3, [r3, #0]
 8000176:	68db      	ldr	r3, [r3, #12]
 8000178:	68db      	ldr	r3, [r3, #12]
 800017a:	613b      	str	r3, [r7, #16]
                    xItemValue = listGET_LIST_ITEM_VALUE( &( pxTCB->xStateListItem ) );
 800017c:	693b      	ldr	r3, [r7, #16]
 800017e:	685b      	ldr	r3, [r3, #4]
 8000180:	60fb      	str	r3, [r7, #12]

                    if( xConstTickCount < xItemValue )
 8000182:	69ba      	ldr	r2, [r7, #24]
 8000184:	68fb      	ldr	r3, [r7, #12]
 8000186:	429a      	cmp	r2, r3
 8000188:	d203      	bcs.n	8000192 <xTaskIncrementTick+0x8a>
                        /* It is not time to unblock this item yet, but the
                         * item value is the time at which the task at the head
                         * of the blocked list must be removed from the Blocked
                         * state -  so record the item value in
                         * xNextTaskUnblockTime. */
                        xNextTaskUnblockTime = xItemValue;
 800018a:	4b5c      	ldr	r3, [pc, #368]	@ (80002fc <xTaskIncrementTick+0x1f4>)
 800018c:	68fa      	ldr	r2, [r7, #12]
 800018e:	601a      	str	r2, [r3, #0]
                        break;
 8000190:	e08c      	b.n	80002ac <xTaskIncrementTick+0x1a4>
                    {
                        mtCOVERAGE_TEST_MARKER();
                    }

                    /* It is time to remove the item from the Blocked state. */
                    listREMOVE_ITEM( &( pxTCB->xStateListItem ) );
 8000192:	693b      	ldr	r3, [r7, #16]
 8000194:	695b      	ldr	r3, [r3, #20]
 8000196:	60bb      	str	r3, [r7, #8]
 8000198:	693b      	ldr	r3, [r7, #16]
 800019a:	689b      	ldr	r3, [r3, #8]
 800019c:	693a      	ldr	r2, [r7, #16]
 800019e:	68d2      	ldr	r2, [r2, #12]
 80001a0:	609a      	str	r2, [r3, #8]
 80001a2:	693b      	ldr	r3, [r7, #16]
 80001a4:	68db      	ldr	r3, [r3, #12]
 80001a6:	693a      	ldr	r2, [r7, #16]
 80001a8:	6892      	ldr	r2, [r2, #8]
 80001aa:	605a      	str	r2, [r3, #4]
 80001ac:	68bb      	ldr	r3, [r7, #8]
 80001ae:	685a      	ldr	r2, [r3, #4]
 80001b0:	693b      	ldr	r3, [r7, #16]
 80001b2:	3304      	adds	r3, #4
 80001b4:	429a      	cmp	r2, r3
 80001b6:	d103      	bne.n	80001c0 <xTaskIncrementTick+0xb8>
 80001b8:	693b      	ldr	r3, [r7, #16]
 80001ba:	68da      	ldr	r2, [r3, #12]
 80001bc:	68bb      	ldr	r3, [r7, #8]
 80001be:	605a      	str	r2, [r3, #4]
 80001c0:	693b      	ldr	r3, [r7, #16]
 80001c2:	2200      	movs	r2, #0
 80001c4:	615a      	str	r2, [r3, #20]
 80001c6:	68bb      	ldr	r3, [r7, #8]
 80001c8:	681b      	ldr	r3, [r3, #0]
 80001ca:	1e5a      	subs	r2, r3, #1
 80001cc:	68bb      	ldr	r3, [r7, #8]
 80001ce:	601a      	str	r2, [r3, #0]

                    /* Is the task waiting on an event also?  If so remove
                     * it from the event list. */
                    if( listLIST_ITEM_CONTAINER( &( pxTCB->xEventListItem ) ) != NULL )
 80001d0:	693b      	ldr	r3, [r7, #16]
 80001d2:	6a9b      	ldr	r3, [r3, #40]	@ 0x28
 80001d4:	2b00      	cmp	r3, #0
 80001d6:	d01e      	beq.n	8000216 <xTaskIncrementTick+0x10e>
                    {
                        listREMOVE_ITEM( &( pxTCB->xEventListItem ) );
 80001d8:	693b      	ldr	r3, [r7, #16]
 80001da:	6a9b      	ldr	r3, [r3, #40]	@ 0x28
 80001dc:	607b      	str	r3, [r7, #4]
 80001de:	693b      	ldr	r3, [r7, #16]
 80001e0:	69db      	ldr	r3, [r3, #28]
 80001e2:	693a      	ldr	r2, [r7, #16]
 80001e4:	6a12      	ldr	r2, [r2, #32]
 80001e6:	609a      	str	r2, [r3, #8]
 80001e8:	693b      	ldr	r3, [r7, #16]
 80001ea:	6a1b      	ldr	r3, [r3, #32]
 80001ec:	693a      	ldr	r2, [r7, #16]
 80001ee:	69d2      	ldr	r2, [r2, #28]
 80001f0:	605a      	str	r2, [r3, #4]
 80001f2:	687b      	ldr	r3, [r7, #4]
 80001f4:	685a      	ldr	r2, [r3, #4]
 80001f6:	693b      	ldr	r3, [r7, #16]
 80001f8:	3318      	adds	r3, #24
 80001fa:	429a      	cmp	r2, r3
 80001fc:	d103      	bne.n	8000206 <xTaskIncrementTick+0xfe>
 80001fe:	693b      	ldr	r3, [r7, #16]
 8000200:	6a1a      	ldr	r2, [r3, #32]
 8000202:	687b      	ldr	r3, [r7, #4]
 8000204:	605a      	str	r2, [r3, #4]
 8000206:	693b      	ldr	r3, [r7, #16]
 8000208:	2200      	movs	r2, #0
 800020a:	629a      	str	r2, [r3, #40]	@ 0x28
 800020c:	687b      	ldr	r3, [r7, #4]
 800020e:	681b      	ldr	r3, [r3, #0]
 8000210:	1e5a      	subs	r2, r3, #1
 8000212:	687b      	ldr	r3, [r7, #4]
 8000214:	601a      	str	r2, [r3, #0]
                        mtCOVERAGE_TEST_MARKER();
                    }

                    /* Place the unblocked task into the appropriate ready
                     * list. */
                    prvAddTaskToReadyList( pxTCB );
 8000216:	693b      	ldr	r3, [r7, #16]
 8000218:	6ada      	ldr	r2, [r3, #44]	@ 0x2c
 800021a:	4b39      	ldr	r3, [pc, #228]	@ (8000300 <xTaskIncrementTick+0x1f8>)
 800021c:	681b      	ldr	r3, [r3, #0]
 800021e:	429a      	cmp	r2, r3
 8000220:	d903      	bls.n	800022a <xTaskIncrementTick+0x122>
 8000222:	693b      	ldr	r3, [r7, #16]
 8000224:	6ada      	ldr	r2, [r3, #44]	@ 0x2c
 8000226:	4b36      	ldr	r3, [pc, #216]	@ (8000300 <xTaskIncrementTick+0x1f8>)
 8000228:	601a      	str	r2, [r3, #0]
 800022a:	693b      	ldr	r3, [r7, #16]
 800022c:	6ada      	ldr	r2, [r3, #44]	@ 0x2c
 800022e:	4935      	ldr	r1, [pc, #212]	@ (8000304 <xTaskIncrementTick+0x1fc>)
 8000230:	0013      	movs	r3, r2
 8000232:	009b      	lsls	r3, r3, #2
 8000234:	189b      	adds	r3, r3, r2
 8000236:	009b      	lsls	r3, r3, #2
 8000238:	18cb      	adds	r3, r1, r3
 800023a:	3304      	adds	r3, #4
 800023c:	681b      	ldr	r3, [r3, #0]
 800023e:	603b      	str	r3, [r7, #0]
 8000240:	693b      	ldr	r3, [r7, #16]
 8000242:	683a      	ldr	r2, [r7, #0]
 8000244:	609a      	str	r2, [r3, #8]
 8000246:	683b      	ldr	r3, [r7, #0]
 8000248:	689a      	ldr	r2, [r3, #8]
 800024a:	693b      	ldr	r3, [r7, #16]
 800024c:	60da      	str	r2, [r3, #12]
 800024e:	683b      	ldr	r3, [r7, #0]
 8000250:	689b      	ldr	r3, [r3, #8]
 8000252:	693a      	ldr	r2, [r7, #16]
 8000254:	3204      	adds	r2, #4
 8000256:	605a      	str	r2, [r3, #4]
 8000258:	693b      	ldr	r3, [r7, #16]
 800025a:	1d1a      	adds	r2, r3, #4
 800025c:	683b      	ldr	r3, [r7, #0]
 800025e:	609a      	str	r2, [r3, #8]
 8000260:	693b      	ldr	r3, [r7, #16]
 8000262:	6ada      	ldr	r2, [r3, #44]	@ 0x2c
 8000264:	0013      	movs	r3, r2
 8000266:	009b      	lsls	r3, r3, #2
 8000268:	189b      	adds	r3, r3, r2
 800026a:	009b      	lsls	r3, r3, #2
 800026c:	4a25      	ldr	r2, [pc, #148]	@ (8000304 <xTaskIncrementTick+0x1fc>)
 800026e:	189a      	adds	r2, r3, r2
 8000270:	693b      	ldr	r3, [r7, #16]
 8000272:	615a      	str	r2, [r3, #20]
 8000274:	693b      	ldr	r3, [r7, #16]
 8000276:	6ada      	ldr	r2, [r3, #44]	@ 0x2c
 8000278:	4922      	ldr	r1, [pc, #136]	@ (8000304 <xTaskIncrementTick+0x1fc>)
 800027a:	0013      	movs	r3, r2
 800027c:	009b      	lsls	r3, r3, #2
 800027e:	189b      	adds	r3, r3, r2
 8000280:	009b      	lsls	r3, r3, #2
 8000282:	5859      	ldr	r1, [r3, r1]
 8000284:	693b      	ldr	r3, [r7, #16]
 8000286:	6ada      	ldr	r2, [r3, #44]	@ 0x2c
 8000288:	1c48      	adds	r0, r1, #1
 800028a:	491e      	ldr	r1, [pc, #120]	@ (8000304 <xTaskIncrementTick+0x1fc>)
 800028c:	0013      	movs	r3, r2
 800028e:	009b      	lsls	r3, r3, #2
 8000290:	189b      	adds	r3, r3, r2
 8000292:	009b      	lsls	r3, r3, #2
 8000294:	5058      	str	r0, [r3, r1]
                             * task.
                             * The case of equal priority tasks sharing
                             * processing time (which happens when both
                             * preemption and time slicing are on) is
                             * handled below.*/
                            if( pxTCB->uxPriority > pxCurrentTCB->uxPriority )
 8000296:	693b      	ldr	r3, [r7, #16]
 8000298:	6ada      	ldr	r2, [r3, #44]	@ 0x2c
 800029a:	4b1b      	ldr	r3, [pc, #108]	@ (8000308 <xTaskIncrementTick+0x200>)
 800029c:	681b      	ldr	r3, [r3, #0]
 800029e:	6adb      	ldr	r3, [r3, #44]	@ 0x2c
 80002a0:	429a      	cmp	r2, r3
 80002a2:	d800      	bhi.n	80002a6 <xTaskIncrementTick+0x19e>
 80002a4:	e75b      	b.n	800015e <xTaskIncrementTick+0x56>
                            {
                                xSwitchRequired = pdTRUE;
 80002a6:	2301      	movs	r3, #1
 80002a8:	61fb      	str	r3, [r7, #28]
                if( listLIST_IS_EMPTY( pxDelayedTaskList ) != pdFALSE )
 80002aa:	e758      	b.n	800015e <xTaskIncrementTick+0x56>
         * writer has not explicitly turned time slicing off. */
        #if ( ( configUSE_PREEMPTION == 1 ) && ( configUSE_TIME_SLICING == 1 ) )
        {
            #if ( configNUMBER_OF_CORES == 1 )
            {
                if( listCURRENT_LIST_LENGTH( &( pxReadyTasksLists[ pxCurrentTCB->uxPriority ] ) ) > 1U )
 80002ac:	4b16      	ldr	r3, [pc, #88]	@ (8000308 <xTaskIncrementTick+0x200>)
 80002ae:	681b      	ldr	r3, [r3, #0]
 80002b0:	6ada      	ldr	r2, [r3, #44]	@ 0x2c
 80002b2:	4914      	ldr	r1, [pc, #80]	@ (8000304 <xTaskIncrementTick+0x1fc>)
 80002b4:	0013      	movs	r3, r2
 80002b6:	009b      	lsls	r3, r3, #2
 80002b8:	189b      	adds	r3, r3, r2
 80002ba:	009b      	lsls	r3, r3, #2
 80002bc:	585b      	ldr	r3, [r3, r1]
 80002be:	2b01      	cmp	r3, #1
 80002c0:	d901      	bls.n	80002c6 <xTaskIncrementTick+0x1be>
                {
                    xSwitchRequired = pdTRUE;
 80002c2:	2301      	movs	r3, #1
 80002c4:	61fb      	str	r3, [r7, #28]
        #if ( configUSE_PREEMPTION == 1 )
        {
            #if ( configNUMBER_OF_CORES == 1 )
            {
                /* For single core the core ID is always 0. */
                if( xYieldPendings[ 0 ] != pdFALSE )
 80002c6:	4b11      	ldr	r3, [pc, #68]	@ (800030c <xTaskIncrementTick+0x204>)
 80002c8:	681b      	ldr	r3, [r3, #0]
 80002ca:	2b00      	cmp	r3, #0
 80002cc:	d007      	beq.n	80002de <xTaskIncrementTick+0x1d6>
                {
                    xSwitchRequired = pdTRUE;
 80002ce:	2301      	movs	r3, #1
 80002d0:	61fb      	str	r3, [r7, #28]
 80002d2:	e004      	b.n	80002de <xTaskIncrementTick+0x1d6>
        }
        #endif /* #if ( configUSE_PREEMPTION == 1 ) */
    }
    else
    {
        xPendedTicks += 1U;
 80002d4:	4b0e      	ldr	r3, [pc, #56]	@ (8000310 <xTaskIncrementTick+0x208>)
 80002d6:	681b      	ldr	r3, [r3, #0]
 80002d8:	1c5a      	adds	r2, r3, #1
 80002da:	4b0d      	ldr	r3, [pc, #52]	@ (8000310 <xTaskIncrementTick+0x208>)
 80002dc:	601a      	str	r2, [r3, #0]
        #endif
    }

    traceRETURN_xTaskIncrementTick( xSwitchRequired );

    return xSwitchRequired;
 80002de:	69fb      	ldr	r3, [r7, #28]
}
 80002e0:	0018      	movs	r0, r3
 80002e2:	46bd      	mov	sp, r7
 80002e4:	b008      	add	sp, #32
 80002e6:	bd80      	pop	{r7, pc}
 80002e8:	200000a4 	.word	0x200000a4
 80002ec:	2000008c 	.word	0x2000008c
 80002f0:	20000084 	.word	0x20000084
 80002f4:	20000088 	.word	0x20000088
 80002f8:	2000009c 	.word	0x2000009c
 80002fc:	200000a0 	.word	0x200000a0
 8000300:	20000090 	.word	0x20000090
 8000304:	20000020 	.word	0x20000020
 8000308:	2000001c 	.word	0x2000001c
 800030c:	20000098 	.word	0x20000098
 8000310:	20000094 	.word	0x20000094

08000314 <vTaskSwitchContext>:
#endif /* configUSE_APPLICATION_TASK_TAG */
/*-----------------------------------------------------------*/

#if ( configNUMBER_OF_CORES == 1 )
    void vTaskSwitchContext( void )
    {
 8000314:	b580      	push	{r7, lr}
 8000316:	b082      	sub	sp, #8
 8000318:	af00      	add	r7, sp, #0
        traceENTER_vTaskSwitchContext();

        if( uxSchedulerSuspended != ( UBaseType_t ) 0U )
 800031a:	4b20      	ldr	r3, [pc, #128]	@ (800039c <vTaskSwitchContext+0x88>)
 800031c:	681b      	ldr	r3, [r3, #0]
 800031e:	2b00      	cmp	r3, #0
 8000320:	d003      	beq.n	800032a <vTaskSwitchContext+0x16>
        {
            /* The scheduler is currently suspended - do not allow a context
             * switch. */
            xYieldPendings[ 0 ] = pdTRUE;
 8000322:	4b1f      	ldr	r3, [pc, #124]	@ (80003a0 <vTaskSwitchContext+0x8c>)
 8000324:	2201      	movs	r2, #1
 8000326:	601a      	str	r2, [r3, #0]
            }
            #endif
        }

        traceRETURN_vTaskSwitchContext();
    }
 8000328:	e033      	b.n	8000392 <vTaskSwitchContext+0x7e>
            xYieldPendings[ 0 ] = pdFALSE;
 800032a:	4b1d      	ldr	r3, [pc, #116]	@ (80003a0 <vTaskSwitchContext+0x8c>)
 800032c:	2200      	movs	r2, #0
 800032e:	601a      	str	r2, [r3, #0]
            taskSELECT_HIGHEST_PRIORITY_TASK();
 8000330:	4b1c      	ldr	r3, [pc, #112]	@ (80003a4 <vTaskSwitchContext+0x90>)
 8000332:	681b      	ldr	r3, [r3, #0]
 8000334:	607b      	str	r3, [r7, #4]
 8000336:	e002      	b.n	800033e <vTaskSwitchContext+0x2a>
 8000338:	687b      	ldr	r3, [r7, #4]
 800033a:	3b01      	subs	r3, #1
 800033c:	607b      	str	r3, [r7, #4]
 800033e:	491a      	ldr	r1, [pc, #104]	@ (80003a8 <vTaskSwitchContext+0x94>)
 8000340:	687a      	ldr	r2, [r7, #4]
 8000342:	0013      	movs	r3, r2
 8000344:	009b      	lsls	r3, r3, #2
 8000346:	189b      	adds	r3, r3, r2
 8000348:	009b      	lsls	r3, r3, #2
 800034a:	585b      	ldr	r3, [r3, r1]
 800034c:	2b00      	cmp	r3, #0
 800034e:	d0f3      	beq.n	8000338 <vTaskSwitchContext+0x24>
 8000350:	687a      	ldr	r2, [r7, #4]
 8000352:	0013      	movs	r3, r2
 8000354:	009b      	lsls	r3, r3, #2
 8000356:	189b      	adds	r3, r3, r2
 8000358:	009b      	lsls	r3, r3, #2
 800035a:	4a13      	ldr	r2, [pc, #76]	@ (80003a8 <vTaskSwitchContext+0x94>)
 800035c:	189b      	adds	r3, r3, r2
 800035e:	603b      	str	r3, [r7, #0]
 8000360:	683b      	ldr	r3, [r7, #0]
 8000362:	685b      	ldr	r3, [r3, #4]
 8000364:	685a      	ldr	r2, [r3, #4]
 8000366:	683b      	ldr	r3, [r7, #0]
 8000368:	605a      	str	r2, [r3, #4]
 800036a:	683b      	ldr	r3, [r7, #0]
 800036c:	685a      	ldr	r2, [r3, #4]
 800036e:	683b      	ldr	r3, [r7, #0]
 8000370:	3308      	adds	r3, #8
 8000372:	429a      	cmp	r2, r3
 8000374:	d103      	bne.n	800037e <vTaskSwitchContext+0x6a>
 8000376:	683b      	ldr	r3, [r7, #0]
 8000378:	68da      	ldr	r2, [r3, #12]
 800037a:	683b      	ldr	r3, [r7, #0]
 800037c:	605a      	str	r2, [r3, #4]
 800037e:	683b      	ldr	r3, [r7, #0]
 8000380:	685b      	ldr	r3, [r3, #4]
 8000382:	68da      	ldr	r2, [r3, #12]
 8000384:	4b09      	ldr	r3, [pc, #36]	@ (80003ac <vTaskSwitchContext+0x98>)
 8000386:	601a      	str	r2, [r3, #0]
 8000388:	4b06      	ldr	r3, [pc, #24]	@ (80003a4 <vTaskSwitchContext+0x90>)
 800038a:	687a      	ldr	r2, [r7, #4]
 800038c:	601a      	str	r2, [r3, #0]
            portTASK_SWITCH_HOOK( pxCurrentTCB );
 800038e:	4b07      	ldr	r3, [pc, #28]	@ (80003ac <vTaskSwitchContext+0x98>)
 8000390:	681b      	ldr	r3, [r3, #0]
    }
 8000392:	46c0      	nop			@ (mov r8, r8)
 8000394:	46bd      	mov	sp, r7
 8000396:	b002      	add	sp, #8
 8000398:	bd80      	pop	{r7, pc}
 800039a:	46c0      	nop			@ (mov r8, r8)
 800039c:	200000a4 	.word	0x200000a4
 80003a0:	20000098 	.word	0x20000098
 80003a4:	20000090 	.word	0x20000090
 80003a8:	20000020 	.word	0x20000020
 80003ac:	2000001c 	.word	0x2000001c

080003b0 <prvResetNextTaskUnblockTime>:

#endif /* INCLUDE_vTaskDelete */
/*-----------------------------------------------------------*/

STATIC void prvResetNextTaskUnblockTime( void )
{
 80003b0:	b580      	push	{r7, lr}
 80003b2:	af00      	add	r7, sp, #0
    if( listLIST_IS_EMPTY( pxDelayedTaskList ) != pdFALSE )
 80003b4:	4b09      	ldr	r3, [pc, #36]	@ (80003dc <prvResetNextTaskUnblockTime+0x2c>)
 80003b6:	681b      	ldr	r3, [r3, #0]
 80003b8:	681b      	ldr	r3, [r3, #0]
 80003ba:	2b00      	cmp	r3, #0
 80003bc:	d104      	bne.n	80003c8 <prvResetNextTaskUnblockTime+0x18>
    {
        /* The new current delayed list is empty.  Set xNextTaskUnblockTime to
         * the maximum possible value so it is  extremely unlikely that the
         * if( xTickCount >= xNextTaskUnblockTime ) test will pass until
         * there is an item in the delayed list. */
        xNextTaskUnblockTime = portMAX_DELAY;
 80003be:	4b08      	ldr	r3, [pc, #32]	@ (80003e0 <prvResetNextTaskUnblockTime+0x30>)
 80003c0:	2201      	movs	r2, #1
 80003c2:	4252      	negs	r2, r2
 80003c4:	601a      	str	r2, [r3, #0]
         * the item at the head of the delayed list.  This is the time at
         * which the task at the head of the delayed list should be removed
         * from the Blocked state. */
        xNextTaskUnblockTime = listGET_ITEM_VALUE_OF_HEAD_ENTRY( pxDelayedTaskList );
    }
}
 80003c6:	e005      	b.n	80003d4 <prvResetNextTaskUnblockTime+0x24>
        xNextTaskUnblockTime = listGET_ITEM_VALUE_OF_HEAD_ENTRY( pxDelayedTaskList );
 80003c8:	4b04      	ldr	r3, [pc, #16]	@ (80003dc <prvResetNextTaskUnblockTime+0x2c>)
 80003ca:	681b      	ldr	r3, [r3, #0]
 80003cc:	68db      	ldr	r3, [r3, #12]
 80003ce:	681a      	ldr	r2, [r3, #0]
 80003d0:	4b03      	ldr	r3, [pc, #12]	@ (80003e0 <prvResetNextTaskUnblockTime+0x30>)
 80003d2:	601a      	str	r2, [r3, #0]
}
 80003d4:	46c0      	nop			@ (mov r8, r8)
 80003d6:	46bd      	mov	sp, r7
 80003d8:	bd80      	pop	{r7, pc}
 80003da:	46c0      	nop			@ (mov r8, r8)
 80003dc:	20000084 	.word	0x20000084
 80003e0:	200000a0 	.word	0x200000a0

080003e4 <SysTick_Handler>:
}

/*-----------------------------------------------------------*/

void SysTick_Handler( void ) /* PRIVILEGED_FUNCTION */
{
 80003e4:	b580      	push	{r7, lr}
 80003e6:	b082      	sub	sp, #8
 80003e8:	af00      	add	r7, sp, #0
    uint32_t ulPreviousMask;

    ulPreviousMask = portSET_INTERRUPT_MASK_FROM_ISR();
 80003ea:	f000 f845 	bl	8000478 <ulSetInterruptMask>
 80003ee:	0003      	movs	r3, r0
 80003f0:	607b      	str	r3, [r7, #4]

    traceISR_ENTER();
    {
        /* Increment the RTOS tick. */
        if( xTaskIncrementTick() != pdFALSE )
 80003f2:	f7ff fe89 	bl	8000108 <xTaskIncrementTick>
 80003f6:	1e03      	subs	r3, r0, #0
 80003f8:	d003      	beq.n	8000402 <SysTick_Handler+0x1e>
        {
            traceISR_EXIT_TO_SCHEDULER();
            /* Pend a context switch. */
            portNVIC_INT_CTRL_REG = portNVIC_PENDSVSET_BIT;
 80003fa:	4b06      	ldr	r3, [pc, #24]	@ (8000414 <SysTick_Handler+0x30>)
 80003fc:	2280      	movs	r2, #128	@ 0x80
 80003fe:	0552      	lsls	r2, r2, #21
 8000400:	601a      	str	r2, [r3, #0]
        {
            traceISR_EXIT();
        }
    }

    portCLEAR_INTERRUPT_MASK_FROM_ISR( ulPreviousMask );
 8000402:	687b      	ldr	r3, [r7, #4]
 8000404:	0018      	movs	r0, r3
 8000406:	f000 f83d 	bl	8000484 <vClearInterruptMask>
}
 800040a:	46c0      	nop			@ (mov r8, r8)
 800040c:	46bd      	mov	sp, r7
 800040e:	b002      	add	sp, #8
 8000410:	bd80      	pop	{r7, pc}
 8000412:	46c0      	nop			@ (mov r8, r8)
 8000414:	e000ed04 	.word	0xe000ed04

08000418 <vPortSVCHandler_C>:

/*-----------------------------------------------------------*/

void vPortSVCHandler_C( uint32_t * pulCallerStackAddress ) /* PRIVILEGED_FUNCTION portDONT_DISCARD */
{
 8000418:	b580      	push	{r7, lr}
 800041a:	b084      	sub	sp, #16
 800041c:	af00      	add	r7, sp, #0
 800041e:	6078      	str	r0, [r7, #4]
    uint32_t ulPC;
    uint8_t ucSVCNumber;

    /* Register are stored on the stack in the following order - R0, R1, R2, R3,
     * R12, LR, PC, xPSR. */
    ulPC = pulCallerStackAddress[ portOFFSET_TO_PC ];
 8000420:	687b      	ldr	r3, [r7, #4]
 8000422:	699b      	ldr	r3, [r3, #24]
 8000424:	60fb      	str	r3, [r7, #12]
    ucSVCNumber = ( ( uint8_t * ) ulPC )[ -2 ];
 8000426:	68fb      	ldr	r3, [r7, #12]
 8000428:	3b02      	subs	r3, #2
 800042a:	001a      	movs	r2, r3
 800042c:	210b      	movs	r1, #11
 800042e:	187b      	adds	r3, r7, r1
 8000430:	7812      	ldrb	r2, [r2, #0]
 8000432:	701a      	strb	r2, [r3, #0]

    switch( ucSVCNumber )
 8000434:	187b      	adds	r3, r7, r1
 8000436:	781b      	ldrb	r3, [r3, #0]
 8000438:	2b64      	cmp	r3, #100	@ 0x64
 800043a:	d102      	bne.n	8000442 <vPortSVCHandler_C+0x2a>
    {
        case portSVC_START_SCHEDULER:
            /* Setup the context of the first task so that the first task starts
             * executing. */
            vRestoreContextOfFirstTask();
 800043c:	f000 f808 	bl	8000450 <vRestoreContextOfFirstTask>
            break;
 8000440:	46c0      	nop			@ (mov r8, r8)

        default:
            /* Incorrect SVC call. */
            configASSERT( pdFALSE );
    }
}
 8000442:	46c0      	nop			@ (mov r8, r8)
 8000444:	46bd      	mov	sp, r7
 8000446:	b004      	add	sp, #16
 8000448:	bd80      	pop	{r7, pc}
 800044a:	0000      	movs	r0, r0
 800044c:	0000      	movs	r0, r0
	...

08000450 <vRestoreContextOfFirstTask>:

#else /* configENABLE_MPU */

    void vRestoreContextOfFirstTask( void ) /* __attribute__ (( naked )) PRIVILEGED_FUNCTION */
    {
        __asm volatile
 8000450:	4a08      	ldr	r2, [pc, #32]	@ (8000474 <vRestoreContextOfFirstTask+0x24>)
 8000452:	6811      	ldr	r1, [r2, #0]
 8000454:	6808      	ldr	r0, [r1, #0]
 8000456:	c804      	ldmia	r0!, {r2}
 8000458:	2102      	movs	r1, #2
 800045a:	f381 8814 	msr	CONTROL, r1
 800045e:	3020      	adds	r0, #32
 8000460:	f380 8809 	msr	PSP, r0
 8000464:	f3bf 8f6f 	isb	sy
 8000468:	4710      	bx	r2
 800046a:	46c0      	nop			@ (mov r8, r8)
 800046c:	46c0      	nop			@ (mov r8, r8)
 800046e:	46c0      	nop			@ (mov r8, r8)
            " isb                                             \n"
            " bx   r2                                         \n" /* Finally, branch to EXC_RETURN. */
            "                                                 \n"
            " .align 4                                        \n"
        );
    }
 8000470:	46c0      	nop			@ (mov r8, r8)
 8000472:	0000      	.short	0x0000
 8000474:	2000001c 	.word	0x2000001c

08000478 <ulSetInterruptMask>:

/*-----------------------------------------------------------*/

uint32_t ulSetInterruptMask( void ) /* __attribute__(( naked )) PRIVILEGED_FUNCTION */
{
    __asm volatile
 8000478:	f3ef 8010 	mrs	r0, PRIMASK
 800047c:	b672      	cpsid	i
 800047e:	4770      	bx	lr
        " mrs r0, PRIMASK                                 \n"
        " cpsid i                                         \n"
        " bx lr                                           \n"
        ::: "memory"
    );
}
 8000480:	46c0      	nop			@ (mov r8, r8)
 8000482:	0018      	movs	r0, r3

08000484 <vClearInterruptMask>:

/*-----------------------------------------------------------*/

void vClearInterruptMask( __attribute__( ( unused ) ) uint32_t ulMask ) /* __attribute__(( naked )) PRIVILEGED_FUNCTION */
{
    __asm volatile
 8000484:	f380 8810 	msr	PRIMASK, r0
 8000488:	4770      	bx	lr
        "                                                 \n"
        " msr PRIMASK, r0                                 \n"
        " bx lr                                           \n"
        ::: "memory"
    );
}
 800048a:	46c0      	nop			@ (mov r8, r8)
 800048c:	0000      	movs	r0, r0
	...

08000490 <PendSV_Handler>:

#else /* configENABLE_MPU */

    void PendSV_Handler( void ) /* __attribute__ (( naked )) PRIVILEGED_FUNCTION */
    {
        __asm volatile
 8000490:	f3ef 8009 	mrs	r0, PSP
 8000494:	4a0f      	ldr	r2, [pc, #60]	@ (80004d4 <PendSV_Handler+0x44>)
 8000496:	6811      	ldr	r1, [r2, #0]
 8000498:	3824      	subs	r0, #36	@ 0x24
 800049a:	6008      	str	r0, [r1, #0]
 800049c:	4673      	mov	r3, lr
 800049e:	c0f8      	stmia	r0!, {r3, r4, r5, r6, r7}
 80004a0:	4644      	mov	r4, r8
 80004a2:	464d      	mov	r5, r9
 80004a4:	4656      	mov	r6, sl
 80004a6:	465f      	mov	r7, fp
 80004a8:	c0f0      	stmia	r0!, {r4, r5, r6, r7}
 80004aa:	b672      	cpsid	i
 80004ac:	f7ff ff32 	bl	8000314 <vTaskSwitchContext>
 80004b0:	b662      	cpsie	i
 80004b2:	4a08      	ldr	r2, [pc, #32]	@ (80004d4 <PendSV_Handler+0x44>)
 80004b4:	6811      	ldr	r1, [r2, #0]
 80004b6:	6808      	ldr	r0, [r1, #0]
 80004b8:	3014      	adds	r0, #20
 80004ba:	c8f0      	ldmia	r0!, {r4, r5, r6, r7}
 80004bc:	46a0      	mov	r8, r4
 80004be:	46a9      	mov	r9, r5
 80004c0:	46b2      	mov	sl, r6
 80004c2:	46bb      	mov	fp, r7
 80004c4:	f380 8809 	msr	PSP, r0
 80004c8:	3824      	subs	r0, #36	@ 0x24
 80004ca:	c8f8      	ldmia	r0!, {r3, r4, r5, r6, r7}
 80004cc:	4718      	bx	r3
 80004ce:	46c0      	nop			@ (mov r8, r8)
            " ldmia r0!, {r3-r7}                              \n" /* Read from stack - r3 = LR and r4-r7 restored. */
            " bx r3                                           \n"
            "                                                 \n"
            " .align 4                                        \n"
        );
    }
 80004d0:	46c0      	nop			@ (mov r8, r8)
 80004d2:	0000      	.short	0x0000
 80004d4:	2000001c 	.word	0x2000001c
	...

080004e0 <SVC_Handler>:

#else /* ( configENABLE_MPU == 1 ) && ( configUSE_MPU_WRAPPERS_V1 == 0 ) */

    void SVC_Handler( void ) /* __attribute__ (( naked )) PRIVILEGED_FUNCTION */
    {
        __asm volatile
 80004e0:	2004      	movs	r0, #4
 80004e2:	4671      	mov	r1, lr
 80004e4:	4208      	tst	r0, r1
 80004e6:	d003      	beq.n	80004f0 <stacking_used_msp>

080004e8 <stacking_used_psp>:
 80004e8:	f3ef 8009 	mrs	r0, PSP
 80004ec:	4b05      	ldr	r3, [pc, #20]	@ (8000504 <stacking_used_msp+0x14>)
 80004ee:	4718      	bx	r3

080004f0 <stacking_used_msp>:
 80004f0:	f3ef 8008 	mrs	r0, MSP
 80004f4:	4b03      	ldr	r3, [pc, #12]	@ (8000504 <stacking_used_msp+0x14>)
 80004f6:	4718      	bx	r3
 80004f8:	46c0      	nop			@ (mov r8, r8)
 80004fa:	46c0      	nop			@ (mov r8, r8)
 80004fc:	46c0      	nop			@ (mov r8, r8)
 80004fe:	46c0      	nop			@ (mov r8, r8)
            "    ldr r3, =vPortSVCHandler_C  \n"
            "    bx r3                       \n"
            "                                \n"
            " .align 4                       \n"
        );
    }
 8000500:	46c0      	nop			@ (mov r8, r8)
 8000502:	0000      	.short	0x0000
 8000504:	08000419 	.word	0x08000419

08000508 <SYS_CLK_CONFIG>:



#include "stm32c031xx.h"

void SYS_CLK_CONFIG (){
 8000508:	b580      	push	{r7, lr}
 800050a:	b082      	sub	sp, #8
 800050c:	af00      	add	r7, sp, #0

	int timeout = 10000U;
 800050e:	4b16      	ldr	r3, [pc, #88]	@ (8000568 <SYS_CLK_CONFIG+0x60>)
 8000510:	607b      	str	r3, [r7, #4]


	RCC->CR |= (1U << 16); // HSE enable
 8000512:	4b16      	ldr	r3, [pc, #88]	@ (800056c <SYS_CLK_CONFIG+0x64>)
 8000514:	681a      	ldr	r2, [r3, #0]
 8000516:	4b15      	ldr	r3, [pc, #84]	@ (800056c <SYS_CLK_CONFIG+0x64>)
 8000518:	2180      	movs	r1, #128	@ 0x80
 800051a:	0249      	lsls	r1, r1, #9
 800051c:	430a      	orrs	r2, r1
 800051e:	601a      	str	r2, [r3, #0]
	while (!(RCC->CR & (1U << 17))){} // HSE enable flag
 8000520:	46c0      	nop			@ (mov r8, r8)
 8000522:	4b12      	ldr	r3, [pc, #72]	@ (800056c <SYS_CLK_CONFIG+0x64>)
 8000524:	681a      	ldr	r2, [r3, #0]
 8000526:	2380      	movs	r3, #128	@ 0x80
 8000528:	029b      	lsls	r3, r3, #10
 800052a:	4013      	ands	r3, r2
 800052c:	d0f9      	beq.n	8000522 <SYS_CLK_CONFIG+0x1a>

	RCC->CFGR &= ~(0b11 << 0);   // clear bits
 800052e:	4b0f      	ldr	r3, [pc, #60]	@ (800056c <SYS_CLK_CONFIG+0x64>)
 8000530:	689a      	ldr	r2, [r3, #8]
 8000532:	4b0e      	ldr	r3, [pc, #56]	@ (800056c <SYS_CLK_CONFIG+0x64>)
 8000534:	2103      	movs	r1, #3
 8000536:	438a      	bics	r2, r1
 8000538:	609a      	str	r2, [r3, #8]
	RCC->CFGR |= (0b001 << 0); // HSE as sysclock
 800053a:	4b0c      	ldr	r3, [pc, #48]	@ (800056c <SYS_CLK_CONFIG+0x64>)
 800053c:	689a      	ldr	r2, [r3, #8]
 800053e:	4b0b      	ldr	r3, [pc, #44]	@ (800056c <SYS_CLK_CONFIG+0x64>)
 8000540:	2101      	movs	r1, #1
 8000542:	430a      	orrs	r2, r1
 8000544:	609a      	str	r2, [r3, #8]
	while (((RCC->CFGR & (0b111 << 3)) != (0b001 << 3)) && timeout--);  // confirmation that HSE is set
 8000546:	46c0      	nop			@ (mov r8, r8)
 8000548:	4b08      	ldr	r3, [pc, #32]	@ (800056c <SYS_CLK_CONFIG+0x64>)
 800054a:	689b      	ldr	r3, [r3, #8]
 800054c:	2238      	movs	r2, #56	@ 0x38
 800054e:	4013      	ands	r3, r2
 8000550:	2b08      	cmp	r3, #8
 8000552:	d004      	beq.n	800055e <SYS_CLK_CONFIG+0x56>
 8000554:	687b      	ldr	r3, [r7, #4]
 8000556:	1e5a      	subs	r2, r3, #1
 8000558:	607a      	str	r2, [r7, #4]
 800055a:	2b00      	cmp	r3, #0
 800055c:	d1f4      	bne.n	8000548 <SYS_CLK_CONFIG+0x40>

}
 800055e:	46c0      	nop			@ (mov r8, r8)
 8000560:	46bd      	mov	sp, r7
 8000562:	b002      	add	sp, #8
 8000564:	bd80      	pop	{r7, pc}
 8000566:	46c0      	nop			@ (mov r8, r8)
 8000568:	00002710 	.word	0x00002710
 800056c:	40021000 	.word	0x40021000

08000570 <BLINK_INIT>:
#define LED_OUT_CLR (0b11 << 10)
#define LED_ON 		(1U << 5)
#define LED_OFF 	(1U << 21)


void BLINK_INIT (){
 8000570:	b580      	push	{r7, lr}
 8000572:	af00      	add	r7, sp, #0

	RCC->IOPENR |= GPIO_A;
 8000574:	4b0c      	ldr	r3, [pc, #48]	@ (80005a8 <BLINK_INIT+0x38>)
 8000576:	6b5a      	ldr	r2, [r3, #52]	@ 0x34
 8000578:	4b0b      	ldr	r3, [pc, #44]	@ (80005a8 <BLINK_INIT+0x38>)
 800057a:	2101      	movs	r1, #1
 800057c:	430a      	orrs	r2, r1
 800057e:	635a      	str	r2, [r3, #52]	@ 0x34

	GPIOA->MODER &= ~LED_OUT_CLR;
 8000580:	23a0      	movs	r3, #160	@ 0xa0
 8000582:	05db      	lsls	r3, r3, #23
 8000584:	681a      	ldr	r2, [r3, #0]
 8000586:	23a0      	movs	r3, #160	@ 0xa0
 8000588:	05db      	lsls	r3, r3, #23
 800058a:	4908      	ldr	r1, [pc, #32]	@ (80005ac <BLINK_INIT+0x3c>)
 800058c:	400a      	ands	r2, r1
 800058e:	601a      	str	r2, [r3, #0]
	GPIOA->MODER |= LED_OUT;
 8000590:	23a0      	movs	r3, #160	@ 0xa0
 8000592:	05db      	lsls	r3, r3, #23
 8000594:	681a      	ldr	r2, [r3, #0]
 8000596:	23a0      	movs	r3, #160	@ 0xa0
 8000598:	05db      	lsls	r3, r3, #23
 800059a:	2180      	movs	r1, #128	@ 0x80
 800059c:	00c9      	lsls	r1, r1, #3
 800059e:	430a      	orrs	r2, r1
 80005a0:	601a      	str	r2, [r3, #0]
}
 80005a2:	46c0      	nop			@ (mov r8, r8)
 80005a4:	46bd      	mov	sp, r7
 80005a6:	bd80      	pop	{r7, pc}
 80005a8:	40021000 	.word	0x40021000
 80005ac:	fffff3ff 	.word	0xfffff3ff

080005b0 <main>:

int main(void)
{
 80005b0:	b580      	push	{r7, lr}
 80005b2:	b082      	sub	sp, #8
 80005b4:	af00      	add	r7, sp, #0
	BLINK_INIT ();
 80005b6:	f7ff ffdb 	bl	8000570 <BLINK_INIT>
	SYS_CLK_CONFIG();
 80005ba:	f7ff ffa5 	bl	8000508 <SYS_CLK_CONFIG>

	while (1){


			GPIOA->BSRR = LED_ON; //pa5 SET
 80005be:	23a0      	movs	r3, #160	@ 0xa0
 80005c0:	05db      	lsls	r3, r3, #23
 80005c2:	2220      	movs	r2, #32
 80005c4:	619a      	str	r2, [r3, #24]

			for (volatile int i =0; i<10000000; i++);
 80005c6:	2300      	movs	r3, #0
 80005c8:	607b      	str	r3, [r7, #4]
 80005ca:	e002      	b.n	80005d2 <main+0x22>
 80005cc:	687b      	ldr	r3, [r7, #4]
 80005ce:	3301      	adds	r3, #1
 80005d0:	607b      	str	r3, [r7, #4]
 80005d2:	687b      	ldr	r3, [r7, #4]
 80005d4:	4a09      	ldr	r2, [pc, #36]	@ (80005fc <main+0x4c>)
 80005d6:	4293      	cmp	r3, r2
 80005d8:	ddf8      	ble.n	80005cc <main+0x1c>


			GPIOA->BSRR = LED_OFF; //PA5 RESET
 80005da:	23a0      	movs	r3, #160	@ 0xa0
 80005dc:	05db      	lsls	r3, r3, #23
 80005de:	2280      	movs	r2, #128	@ 0x80
 80005e0:	0392      	lsls	r2, r2, #14
 80005e2:	619a      	str	r2, [r3, #24]

			for (volatile int i =0; i<10000000; i++);
 80005e4:	2300      	movs	r3, #0
 80005e6:	603b      	str	r3, [r7, #0]
 80005e8:	e002      	b.n	80005f0 <main+0x40>
 80005ea:	683b      	ldr	r3, [r7, #0]
 80005ec:	3301      	adds	r3, #1
 80005ee:	603b      	str	r3, [r7, #0]
 80005f0:	683b      	ldr	r3, [r7, #0]
 80005f2:	4a02      	ldr	r2, [pc, #8]	@ (80005fc <main+0x4c>)
 80005f4:	4293      	cmp	r3, r2
 80005f6:	ddf8      	ble.n	80005ea <main+0x3a>
			GPIOA->BSRR = LED_ON; //pa5 SET
 80005f8:	e7e1      	b.n	80005be <main+0xe>
 80005fa:	46c0      	nop			@ (mov r8, r8)
 80005fc:	0098967f 	.word	0x0098967f

08000600 <Reset_Handler>:
*/

  .section .text.Reset_Handler
  .weak Reset_Handler
  .type Reset_Handler, %function
Reset_Handler:  ldr   r0, =_estack
 8000600:	480d      	ldr	r0, [pc, #52]	@ (8000638 <LoopForever+0x2>)
  mov   sp, r0          /* set stack pointer */
 8000602:	4685      	mov	sp, r0
/* Call the clock system initialization function.*/
  bl  SystemInit
 8000604:	e000      	b.n	8000608 <Reset_Handler+0x8>
 8000606:	bf00      	nop

/* Copy the data segment initializers from flash to SRAM */
  ldr r0, =_sdata
 8000608:	480c      	ldr	r0, [pc, #48]	@ (800063c <LoopForever+0x6>)
  ldr r1, =_edata
 800060a:	490d      	ldr	r1, [pc, #52]	@ (8000640 <LoopForever+0xa>)
  ldr r2, =_sidata
 800060c:	4a0d      	ldr	r2, [pc, #52]	@ (8000644 <LoopForever+0xe>)
  movs r3, #0
 800060e:	2300      	movs	r3, #0
  b LoopCopyDataInit
 8000610:	e002      	b.n	8000618 <LoopCopyDataInit>

08000612 <CopyDataInit>:

CopyDataInit:
  ldr r4, [r2, r3]
 8000612:	58d4      	ldr	r4, [r2, r3]
  str r4, [r0, r3]
 8000614:	50c4      	str	r4, [r0, r3]
  adds r3, r3, #4
 8000616:	3304      	adds	r3, #4

08000618 <LoopCopyDataInit>:

LoopCopyDataInit:
  adds r4, r0, r3
 8000618:	18c4      	adds	r4, r0, r3
  cmp r4, r1
 800061a:	428c      	cmp	r4, r1
  bcc CopyDataInit
 800061c:	d3f9      	bcc.n	8000612 <CopyDataInit>

/* Zero fill the bss segment. */
  ldr r2, =_sbss
 800061e:	4a0a      	ldr	r2, [pc, #40]	@ (8000648 <LoopForever+0x12>)
  ldr r4, =_ebss
 8000620:	4c0a      	ldr	r4, [pc, #40]	@ (800064c <LoopForever+0x16>)
  movs r3, #0
 8000622:	2300      	movs	r3, #0
  b LoopFillZerobss
 8000624:	e001      	b.n	800062a <LoopFillZerobss>

08000626 <FillZerobss>:

FillZerobss:
  str  r3, [r2]
 8000626:	6013      	str	r3, [r2, #0]
  adds r2, r2, #4
 8000628:	3204      	adds	r2, #4

0800062a <LoopFillZerobss>:

LoopFillZerobss:
  cmp r2, r4
 800062a:	42a2      	cmp	r2, r4
  bcc FillZerobss
 800062c:	d3fb      	bcc.n	8000626 <FillZerobss>


/* Call static constructors */
  bl __libc_init_array
 800062e:	f000 f811 	bl	8000654 <__libc_init_array>
/* Call the application's entry point.*/

  bl main
 8000632:	f7ff ffbd 	bl	80005b0 <main>

08000636 <LoopForever>:

LoopForever:
  b LoopForever
 8000636:	e7fe      	b.n	8000636 <LoopForever>
Reset_Handler:  ldr   r0, =_estack
 8000638:	20003000 	.word	0x20003000
  ldr r0, =_sdata
 800063c:	20000000 	.word	0x20000000
  ldr r1, =_edata
 8000640:	20000000 	.word	0x20000000
  ldr r2, =_sidata
 8000644:	080006bc 	.word	0x080006bc
  ldr r2, =_sbss
 8000648:	20000000 	.word	0x20000000
  ldr r4, =_ebss
 800064c:	200000a8 	.word	0x200000a8

08000650 <ADC_IRQHandler>:
 * @retval : None
*/
  .section .text.Default_Handler,"ax",%progbits
Default_Handler:
Infinite_Loop:
  b Infinite_Loop
 8000650:	e7fe      	b.n	8000650 <ADC_IRQHandler>
	...

08000654 <__libc_init_array>:
 8000654:	b570      	push	{r4, r5, r6, lr}
 8000656:	2600      	movs	r6, #0
 8000658:	4c0c      	ldr	r4, [pc, #48]	@ (800068c <__libc_init_array+0x38>)
 800065a:	4d0d      	ldr	r5, [pc, #52]	@ (8000690 <__libc_init_array+0x3c>)
 800065c:	1b64      	subs	r4, r4, r5
 800065e:	10a4      	asrs	r4, r4, #2
 8000660:	42a6      	cmp	r6, r4
 8000662:	d109      	bne.n	8000678 <__libc_init_array+0x24>
 8000664:	2600      	movs	r6, #0
 8000666:	f000 f819 	bl	800069c <_init>
 800066a:	4c0a      	ldr	r4, [pc, #40]	@ (8000694 <__libc_init_array+0x40>)
 800066c:	4d0a      	ldr	r5, [pc, #40]	@ (8000698 <__libc_init_array+0x44>)
 800066e:	1b64      	subs	r4, r4, r5
 8000670:	10a4      	asrs	r4, r4, #2
 8000672:	42a6      	cmp	r6, r4
 8000674:	d105      	bne.n	8000682 <__libc_init_array+0x2e>
 8000676:	bd70      	pop	{r4, r5, r6, pc}
 8000678:	00b3      	lsls	r3, r6, #2
 800067a:	58eb      	ldr	r3, [r5, r3]
 800067c:	4798      	blx	r3
 800067e:	3601      	adds	r6, #1
 8000680:	e7ee      	b.n	8000660 <__libc_init_array+0xc>
 8000682:	00b3      	lsls	r3, r6, #2
 8000684:	58eb      	ldr	r3, [r5, r3]
 8000686:	4798      	blx	r3
 8000688:	3601      	adds	r6, #1
 800068a:	e7f2      	b.n	8000672 <__libc_init_array+0x1e>
 800068c:	080006b4 	.word	0x080006b4
 8000690:	080006b4 	.word	0x080006b4
 8000694:	080006b8 	.word	0x080006b8
 8000698:	080006b4 	.word	0x080006b4

0800069c <_init>:
 800069c:	b5f8      	push	{r3, r4, r5, r6, r7, lr}
 800069e:	46c0      	nop			@ (mov r8, r8)
 80006a0:	bcf8      	pop	{r3, r4, r5, r6, r7}
 80006a2:	bc08      	pop	{r3}
 80006a4:	469e      	mov	lr, r3
 80006a6:	4770      	bx	lr

080006a8 <_fini>:
 80006a8:	b5f8      	push	{r3, r4, r5, r6, r7, lr}
 80006aa:	46c0      	nop			@ (mov r8, r8)
 80006ac:	bcf8      	pop	{r3, r4, r5, r6, r7}
 80006ae:	bc08      	pop	{r3}
 80006b0:	469e      	mov	lr, r3
 80006b2:	4770      	bx	lr
