
RTOS_variable_blinking.elf:     file format elf32-littlearm

Sections:
Idx Name          Size      VMA       LMA       File off  Algn
  0 .isr_vector   000000b4  08000000  08000000  00001000  2**0
                  CONTENTS, ALLOC, LOAD, READONLY, DATA
  1 .text         00001448  080000c0  080000c0  000010c0  2**4
                  CONTENTS, ALLOC, LOAD, READONLY, CODE
  2 .rodata       00000014  08001508  08001508  00002508  2**2
                  CONTENTS, ALLOC, LOAD, READONLY, DATA
  3 .ARM.extab    00000000  0800151c  0800151c  00003004  2**0
                  CONTENTS, READONLY
  4 .ARM          00000000  0800151c  0800151c  00003004  2**0
                  CONTENTS, READONLY
  5 .preinit_array 00000000  0800151c  0800151c  00003004  2**0
                  CONTENTS, ALLOC, LOAD, DATA
  6 .init_array   00000004  0800151c  0800151c  0000251c  2**2
                  CONTENTS, ALLOC, LOAD, READONLY, DATA
  7 .fini_array   00000004  08001520  08001520  00002520  2**2
                  CONTENTS, ALLOC, LOAD, READONLY, DATA
  8 .data         00000004  20000000  08001524  00003000  2**2
                  CONTENTS, ALLOC, LOAD, DATA
  9 .bss          00000d3c  20000004  08001528  00003004  2**2
                  ALLOC
 10 ._user_heap_stack 00000600  20000d40  08001528  00003d40  2**0
                  ALLOC
 11 .ARM.attributes 00000028  00000000  00000000  00003004  2**0
                  CONTENTS, READONLY
 12 .debug_info   00002b53  00000000  00000000  0000302c  2**0
                  CONTENTS, READONLY, DEBUGGING, OCTETS
 13 .debug_abbrev 000009b6  00000000  00000000  00005b7f  2**0
                  CONTENTS, READONLY, DEBUGGING, OCTETS
 14 .debug_aranges 000003b8  00000000  00000000  00006538  2**3
                  CONTENTS, READONLY, DEBUGGING, OCTETS
 15 .debug_rnglists 000002d6  00000000  00000000  000068f0  2**0
                  CONTENTS, READONLY, DEBUGGING, OCTETS
 16 .debug_macro  00000b6a  00000000  00000000  00006bc6  2**0
                  CONTENTS, READONLY, DEBUGGING, OCTETS
 17 .debug_line   00004089  00000000  00000000  00007730  2**0
                  CONTENTS, READONLY, DEBUGGING, OCTETS
 18 .debug_str    0004e158  00000000  00000000  0000b7b9  2**0
                  CONTENTS, READONLY, DEBUGGING, OCTETS
 19 .comment      00000043  00000000  00000000  00059911  2**0
                  CONTENTS, READONLY
 20 .debug_frame  00000be0  00000000  00000000  00059954  2**2
                  CONTENTS, READONLY, DEBUGGING, OCTETS
 21 .debug_line_str 0000006a  00000000  00000000  0005a534  2**0
                  CONTENTS, READONLY, DEBUGGING, OCTETS

Disassembly of section .text:

080000c0 <__do_global_dtors_aux>:
 80000c0:	b510      	push	{r4, lr}
 80000c2:	4c06      	ldr	r4, [pc, #24]	@ (80000dc <__do_global_dtors_aux+0x1c>)
 80000c4:	7823      	ldrb	r3, [r4, #0]
 80000c6:	2b00      	cmp	r3, #0
 80000c8:	d107      	bne.n	80000da <__do_global_dtors_aux+0x1a>
 80000ca:	4b05      	ldr	r3, [pc, #20]	@ (80000e0 <__do_global_dtors_aux+0x20>)
 80000cc:	2b00      	cmp	r3, #0
 80000ce:	d002      	beq.n	80000d6 <__do_global_dtors_aux+0x16>
 80000d0:	4804      	ldr	r0, [pc, #16]	@ (80000e4 <__do_global_dtors_aux+0x24>)
 80000d2:	e000      	b.n	80000d6 <__do_global_dtors_aux+0x16>
 80000d4:	bf00      	nop
 80000d6:	2301      	movs	r3, #1
 80000d8:	7023      	strb	r3, [r4, #0]
 80000da:	bd10      	pop	{r4, pc}
 80000dc:	20000004 	.word	0x20000004
 80000e0:	00000000 	.word	0x00000000
 80000e4:	080014f0 	.word	0x080014f0

080000e8 <frame_dummy>:
 80000e8:	4b04      	ldr	r3, [pc, #16]	@ (80000fc <frame_dummy+0x14>)
 80000ea:	b510      	push	{r4, lr}
 80000ec:	2b00      	cmp	r3, #0
 80000ee:	d003      	beq.n	80000f8 <frame_dummy+0x10>
 80000f0:	4903      	ldr	r1, [pc, #12]	@ (8000100 <frame_dummy+0x18>)
 80000f2:	4804      	ldr	r0, [pc, #16]	@ (8000104 <frame_dummy+0x1c>)
 80000f4:	e000      	b.n	80000f8 <frame_dummy+0x10>
 80000f6:	bf00      	nop
 80000f8:	bd10      	pop	{r4, pc}
 80000fa:	46c0      	nop			@ (mov r8, r8)
 80000fc:	00000000 	.word	0x00000000
 8000100:	20000008 	.word	0x20000008
 8000104:	080014f0 	.word	0x080014f0

08000108 <vListInitialise>:
/*-----------------------------------------------------------
* PUBLIC LIST API documented in list.h
*----------------------------------------------------------*/

void vListInitialise( List_t * const pxList )
{
 8000108:	b580      	push	{r7, lr}
 800010a:	b082      	sub	sp, #8
 800010c:	af00      	add	r7, sp, #0
 800010e:	6078      	str	r0, [r7, #4]
    traceENTER_vListInitialise( pxList );

    /* The list structure contains a list item which is used to mark the
     * end of the list.  To initialise the list the list end is inserted
     * as the only list entry. */
    pxList->pxIndex = ( ListItem_t * ) &( pxList->xListEnd );
 8000110:	687b      	ldr	r3, [r7, #4]
 8000112:	3308      	adds	r3, #8
 8000114:	001a      	movs	r2, r3
 8000116:	687b      	ldr	r3, [r7, #4]
 8000118:	605a      	str	r2, [r3, #4]

    listSET_FIRST_LIST_ITEM_INTEGRITY_CHECK_VALUE( &( pxList->xListEnd ) );

    /* The list end value is the highest possible value in the list to
     * ensure it remains at the end of the list. */
    pxList->xListEnd.xItemValue = portMAX_DELAY;
 800011a:	687b      	ldr	r3, [r7, #4]
 800011c:	2201      	movs	r2, #1
 800011e:	4252      	negs	r2, r2
 8000120:	609a      	str	r2, [r3, #8]

    /* The list end next and previous pointers point to itself so we know
     * when the list is empty. */
    pxList->xListEnd.pxNext = ( ListItem_t * ) &( pxList->xListEnd );
 8000122:	687b      	ldr	r3, [r7, #4]
 8000124:	3308      	adds	r3, #8
 8000126:	001a      	movs	r2, r3
 8000128:	687b      	ldr	r3, [r7, #4]
 800012a:	60da      	str	r2, [r3, #12]
    pxList->xListEnd.pxPrevious = ( ListItem_t * ) &( pxList->xListEnd );
 800012c:	687b      	ldr	r3, [r7, #4]
 800012e:	3308      	adds	r3, #8
 8000130:	001a      	movs	r2, r3
 8000132:	687b      	ldr	r3, [r7, #4]
 8000134:	611a      	str	r2, [r3, #16]
        pxList->xListEnd.pxContainer = NULL;
        listSET_SECOND_LIST_ITEM_INTEGRITY_CHECK_VALUE( &( pxList->xListEnd ) );
    }
    #endif

    pxList->uxNumberOfItems = ( UBaseType_t ) 0U;
 8000136:	687b      	ldr	r3, [r7, #4]
 8000138:	2200      	movs	r2, #0
 800013a:	601a      	str	r2, [r3, #0]
     * configUSE_LIST_DATA_INTEGRITY_CHECK_BYTES is set to 1. */
    listSET_LIST_INTEGRITY_CHECK_1_VALUE( pxList );
    listSET_LIST_INTEGRITY_CHECK_2_VALUE( pxList );

    traceRETURN_vListInitialise();
}
 800013c:	46c0      	nop			@ (mov r8, r8)
 800013e:	46bd      	mov	sp, r7
 8000140:	b002      	add	sp, #8
 8000142:	bd80      	pop	{r7, pc}

08000144 <vListInitialiseItem>:
/*-----------------------------------------------------------*/

void vListInitialiseItem( ListItem_t * const pxItem )
{
 8000144:	b580      	push	{r7, lr}
 8000146:	b082      	sub	sp, #8
 8000148:	af00      	add	r7, sp, #0
 800014a:	6078      	str	r0, [r7, #4]
    traceENTER_vListInitialiseItem( pxItem );

    /* Make sure the list item is not recorded as being on a list. */
    pxItem->pxContainer = NULL;
 800014c:	687b      	ldr	r3, [r7, #4]
 800014e:	2200      	movs	r2, #0
 8000150:	611a      	str	r2, [r3, #16]
     * configUSE_LIST_DATA_INTEGRITY_CHECK_BYTES is set to 1. */
    listSET_FIRST_LIST_ITEM_INTEGRITY_CHECK_VALUE( pxItem );
    listSET_SECOND_LIST_ITEM_INTEGRITY_CHECK_VALUE( pxItem );

    traceRETURN_vListInitialiseItem();
}
 8000152:	46c0      	nop			@ (mov r8, r8)
 8000154:	46bd      	mov	sp, r7
 8000156:	b002      	add	sp, #8
 8000158:	bd80      	pop	{r7, pc}

0800015a <vListInsert>:
}
/*-----------------------------------------------------------*/

void vListInsert( List_t * const pxList,
                  ListItem_t * const pxNewListItem )
{
 800015a:	b580      	push	{r7, lr}
 800015c:	b084      	sub	sp, #16
 800015e:	af00      	add	r7, sp, #0
 8000160:	6078      	str	r0, [r7, #4]
 8000162:	6039      	str	r1, [r7, #0]
    ListItem_t * pxIterator;
    const TickType_t xValueOfInsertion = pxNewListItem->xItemValue;
 8000164:	683b      	ldr	r3, [r7, #0]
 8000166:	681b      	ldr	r3, [r3, #0]
 8000168:	60bb      	str	r3, [r7, #8]
     * new list item should be placed after it.  This ensures that TCBs which are
     * stored in ready lists (all of which have the same xItemValue value) get a
     * share of the CPU.  However, if the xItemValue is the same as the back marker
     * the iteration loop below will not end.  Therefore the value is checked
     * first, and the algorithm slightly modified if necessary. */
    if( xValueOfInsertion == portMAX_DELAY )
 800016a:	68bb      	ldr	r3, [r7, #8]
 800016c:	3301      	adds	r3, #1
 800016e:	d103      	bne.n	8000178 <vListInsert+0x1e>
    {
        pxIterator = pxList->xListEnd.pxPrevious;
 8000170:	687b      	ldr	r3, [r7, #4]
 8000172:	691b      	ldr	r3, [r3, #16]
 8000174:	60fb      	str	r3, [r7, #12]
 8000176:	e00c      	b.n	8000192 <vListInsert+0x38>
        *   5) If the FreeRTOS port supports interrupt nesting then ensure that
        *      the priority of the tick interrupt is at or below
        *      configMAX_SYSCALL_INTERRUPT_PRIORITY.
        **********************************************************************/

        for( pxIterator = ( ListItem_t * ) &( pxList->xListEnd ); pxIterator->pxNext->xItemValue <= xValueOfInsertion; pxIterator = pxIterator->pxNext )
 8000178:	687b      	ldr	r3, [r7, #4]
 800017a:	3308      	adds	r3, #8
 800017c:	60fb      	str	r3, [r7, #12]
 800017e:	e002      	b.n	8000186 <vListInsert+0x2c>
 8000180:	68fb      	ldr	r3, [r7, #12]
 8000182:	685b      	ldr	r3, [r3, #4]
 8000184:	60fb      	str	r3, [r7, #12]
 8000186:	68fb      	ldr	r3, [r7, #12]
 8000188:	685b      	ldr	r3, [r3, #4]
 800018a:	681b      	ldr	r3, [r3, #0]
 800018c:	68ba      	ldr	r2, [r7, #8]
 800018e:	429a      	cmp	r2, r3
 8000190:	d2f6      	bcs.n	8000180 <vListInsert+0x26>
             * IF YOU FIND YOUR CODE STUCK HERE, SEE THE NOTE JUST ABOVE.
             */
        }
    }

    pxNewListItem->pxNext = pxIterator->pxNext;
 8000192:	68fb      	ldr	r3, [r7, #12]
 8000194:	685a      	ldr	r2, [r3, #4]
 8000196:	683b      	ldr	r3, [r7, #0]
 8000198:	605a      	str	r2, [r3, #4]
    pxNewListItem->pxNext->pxPrevious = pxNewListItem;
 800019a:	683b      	ldr	r3, [r7, #0]
 800019c:	685b      	ldr	r3, [r3, #4]
 800019e:	683a      	ldr	r2, [r7, #0]
 80001a0:	609a      	str	r2, [r3, #8]
    pxNewListItem->pxPrevious = pxIterator;
 80001a2:	683b      	ldr	r3, [r7, #0]
 80001a4:	68fa      	ldr	r2, [r7, #12]
 80001a6:	609a      	str	r2, [r3, #8]
    pxIterator->pxNext = pxNewListItem;
 80001a8:	68fb      	ldr	r3, [r7, #12]
 80001aa:	683a      	ldr	r2, [r7, #0]
 80001ac:	605a      	str	r2, [r3, #4]

    /* Remember which list the item is in.  This allows fast removal of the
     * item later. */
    pxNewListItem->pxContainer = pxList;
 80001ae:	683b      	ldr	r3, [r7, #0]
 80001b0:	687a      	ldr	r2, [r7, #4]
 80001b2:	611a      	str	r2, [r3, #16]

    ( pxList->uxNumberOfItems ) = ( UBaseType_t ) ( pxList->uxNumberOfItems + 1U );
 80001b4:	687b      	ldr	r3, [r7, #4]
 80001b6:	681b      	ldr	r3, [r3, #0]
 80001b8:	1c5a      	adds	r2, r3, #1
 80001ba:	687b      	ldr	r3, [r7, #4]
 80001bc:	601a      	str	r2, [r3, #0]

    traceRETURN_vListInsert();
}
 80001be:	46c0      	nop			@ (mov r8, r8)
 80001c0:	46bd      	mov	sp, r7
 80001c2:	b004      	add	sp, #16
 80001c4:	bd80      	pop	{r7, pc}

080001c6 <uxListRemove>:
/*-----------------------------------------------------------*/


UBaseType_t uxListRemove( ListItem_t * const pxItemToRemove )
{
 80001c6:	b580      	push	{r7, lr}
 80001c8:	b084      	sub	sp, #16
 80001ca:	af00      	add	r7, sp, #0
 80001cc:	6078      	str	r0, [r7, #4]
    /* The list item knows which list it is in.  Obtain the list from the list
     * item. */
    List_t * const pxList = pxItemToRemove->pxContainer;
 80001ce:	687b      	ldr	r3, [r7, #4]
 80001d0:	691b      	ldr	r3, [r3, #16]
 80001d2:	60fb      	str	r3, [r7, #12]

    traceENTER_uxListRemove( pxItemToRemove );

    pxItemToRemove->pxNext->pxPrevious = pxItemToRemove->pxPrevious;
 80001d4:	687b      	ldr	r3, [r7, #4]
 80001d6:	685b      	ldr	r3, [r3, #4]
 80001d8:	687a      	ldr	r2, [r7, #4]
 80001da:	6892      	ldr	r2, [r2, #8]
 80001dc:	609a      	str	r2, [r3, #8]
    pxItemToRemove->pxPrevious->pxNext = pxItemToRemove->pxNext;
 80001de:	687b      	ldr	r3, [r7, #4]
 80001e0:	689b      	ldr	r3, [r3, #8]
 80001e2:	687a      	ldr	r2, [r7, #4]
 80001e4:	6852      	ldr	r2, [r2, #4]
 80001e6:	605a      	str	r2, [r3, #4]

    /* Only used during decision coverage testing. */
    mtCOVERAGE_TEST_DELAY();

    /* Make sure the index is left pointing to a valid item. */
    if( pxList->pxIndex == pxItemToRemove )
 80001e8:	68fb      	ldr	r3, [r7, #12]
 80001ea:	685b      	ldr	r3, [r3, #4]
 80001ec:	687a      	ldr	r2, [r7, #4]
 80001ee:	429a      	cmp	r2, r3
 80001f0:	d103      	bne.n	80001fa <uxListRemove+0x34>
    {
        pxList->pxIndex = pxItemToRemove->pxPrevious;
 80001f2:	687b      	ldr	r3, [r7, #4]
 80001f4:	689a      	ldr	r2, [r3, #8]
 80001f6:	68fb      	ldr	r3, [r7, #12]
 80001f8:	605a      	str	r2, [r3, #4]
    else
    {
        mtCOVERAGE_TEST_MARKER();
    }

    pxItemToRemove->pxContainer = NULL;
 80001fa:	687b      	ldr	r3, [r7, #4]
 80001fc:	2200      	movs	r2, #0
 80001fe:	611a      	str	r2, [r3, #16]
    ( pxList->uxNumberOfItems ) = ( UBaseType_t ) ( pxList->uxNumberOfItems - 1U );
 8000200:	68fb      	ldr	r3, [r7, #12]
 8000202:	681b      	ldr	r3, [r3, #0]
 8000204:	1e5a      	subs	r2, r3, #1
 8000206:	68fb      	ldr	r3, [r7, #12]
 8000208:	601a      	str	r2, [r3, #0]

    traceRETURN_uxListRemove( pxList->uxNumberOfItems );

    return pxList->uxNumberOfItems;
 800020a:	68fb      	ldr	r3, [r7, #12]
 800020c:	681b      	ldr	r3, [r3, #0]
}
 800020e:	0018      	movs	r0, r3
 8000210:	46bd      	mov	sp, r7
 8000212:	b004      	add	sp, #16
 8000214:	bd80      	pop	{r7, pc}

08000216 <prvCreateTask>:
                                  const char * const pcName,
                                  const configSTACK_DEPTH_TYPE uxStackDepth,
                                  void * const pvParameters,
                                  UBaseType_t uxPriority,
                                  TaskHandle_t * const pxCreatedTask )
    {
 8000216:	b590      	push	{r4, r7, lr}
 8000218:	b08b      	sub	sp, #44	@ 0x2c
 800021a:	af04      	add	r7, sp, #16
 800021c:	60f8      	str	r0, [r7, #12]
 800021e:	60b9      	str	r1, [r7, #8]
 8000220:	607a      	str	r2, [r7, #4]
 8000222:	603b      	str	r3, [r7, #0]

            /* Allocate space for the stack used by the task being created. */
            /* MISRA Ref 11.5.1 [Malloc memory assignment] */
            /* More details at: https://github.com/FreeRTOS/FreeRTOS-Kernel/blob/main/MISRA.md#rule-115 */
            /* coverity[misra_c_2012_rule_11_5_violation] */
            pxStack = ( StackType_t * ) pvPortMallocStack( ( ( ( size_t ) uxStackDepth ) * sizeof( StackType_t ) ) );
 8000224:	687b      	ldr	r3, [r7, #4]
 8000226:	009b      	lsls	r3, r3, #2
 8000228:	0018      	movs	r0, r3
 800022a:	f000 ff1d 	bl	8001068 <pvPortMalloc>
 800022e:	0003      	movs	r3, r0
 8000230:	613b      	str	r3, [r7, #16]

            if( pxStack != NULL )
 8000232:	693b      	ldr	r3, [r7, #16]
 8000234:	2b00      	cmp	r3, #0
 8000236:	d016      	beq.n	8000266 <prvCreateTask+0x50>
            {
                /* Allocate space for the TCB. */
                /* MISRA Ref 11.5.1 [Malloc memory assignment] */
                /* More details at: https://github.com/FreeRTOS/FreeRTOS-Kernel/blob/main/MISRA.md#rule-115 */
                /* coverity[misra_c_2012_rule_11_5_violation] */
                pxNewTCB = ( TCB_t * ) pvPortMalloc( sizeof( TCB_t ) );
 8000238:	2050      	movs	r0, #80	@ 0x50
 800023a:	f000 ff15 	bl	8001068 <pvPortMalloc>
 800023e:	0003      	movs	r3, r0
 8000240:	617b      	str	r3, [r7, #20]

                if( pxNewTCB != NULL )
 8000242:	697b      	ldr	r3, [r7, #20]
 8000244:	2b00      	cmp	r3, #0
 8000246:	d009      	beq.n	800025c <prvCreateTask+0x46>
                {
                    ( void ) memset( ( void * ) pxNewTCB, 0x00, sizeof( TCB_t ) );
 8000248:	697b      	ldr	r3, [r7, #20]
 800024a:	2250      	movs	r2, #80	@ 0x50
 800024c:	2100      	movs	r1, #0
 800024e:	0018      	movs	r0, r3
 8000250:	f001 f921 	bl	8001496 <memset>

                    /* Store the stack location in the TCB. */
                    pxNewTCB->pxStack = pxStack;
 8000254:	697b      	ldr	r3, [r7, #20]
 8000256:	693a      	ldr	r2, [r7, #16]
 8000258:	631a      	str	r2, [r3, #48]	@ 0x30
 800025a:	e006      	b.n	800026a <prvCreateTask+0x54>
                }
                else
                {
                    /* The stack cannot be used as the TCB was not created.  Free
                     * it again. */
                    vPortFreeStack( pxStack );
 800025c:	693b      	ldr	r3, [r7, #16]
 800025e:	0018      	movs	r0, r3
 8000260:	f000 ffb4 	bl	80011cc <vPortFree>
 8000264:	e001      	b.n	800026a <prvCreateTask+0x54>
                }
            }
            else
            {
                pxNewTCB = NULL;
 8000266:	2300      	movs	r3, #0
 8000268:	617b      	str	r3, [r7, #20]
            }
        }
        #endif /* portSTACK_GROWTH */

        if( pxNewTCB != NULL )
 800026a:	697b      	ldr	r3, [r7, #20]
 800026c:	2b00      	cmp	r3, #0
 800026e:	d00e      	beq.n	800028e <prvCreateTask+0x78>
                 * task was created dynamically in case it is later deleted. */
                pxNewTCB->ucStaticallyAllocated = tskDYNAMICALLY_ALLOCATED_STACK_AND_TCB;
            }
            #endif /* tskSTATIC_AND_DYNAMIC_ALLOCATION_POSSIBLE */

            prvInitialiseNewTask( pxTaskCode, pcName, uxStackDepth, pvParameters, uxPriority, pxCreatedTask, pxNewTCB, NULL );
 8000270:	683c      	ldr	r4, [r7, #0]
 8000272:	687a      	ldr	r2, [r7, #4]
 8000274:	68b9      	ldr	r1, [r7, #8]
 8000276:	68f8      	ldr	r0, [r7, #12]
 8000278:	2300      	movs	r3, #0
 800027a:	9303      	str	r3, [sp, #12]
 800027c:	697b      	ldr	r3, [r7, #20]
 800027e:	9302      	str	r3, [sp, #8]
 8000280:	6afb      	ldr	r3, [r7, #44]	@ 0x2c
 8000282:	9301      	str	r3, [sp, #4]
 8000284:	6abb      	ldr	r3, [r7, #40]	@ 0x28
 8000286:	9300      	str	r3, [sp, #0]
 8000288:	0023      	movs	r3, r4
 800028a:	f000 f82b 	bl	80002e4 <prvInitialiseNewTask>
        }

        return pxNewTCB;
 800028e:	697b      	ldr	r3, [r7, #20]
    }
 8000290:	0018      	movs	r0, r3
 8000292:	46bd      	mov	sp, r7
 8000294:	b007      	add	sp, #28
 8000296:	bd90      	pop	{r4, r7, pc}

08000298 <xTaskCreate>:
                            const char * const pcName,
                            const configSTACK_DEPTH_TYPE uxStackDepth,
                            void * const pvParameters,
                            UBaseType_t uxPriority,
                            TaskHandle_t * const pxCreatedTask )
    {
 8000298:	b590      	push	{r4, r7, lr}
 800029a:	b089      	sub	sp, #36	@ 0x24
 800029c:	af02      	add	r7, sp, #8
 800029e:	60f8      	str	r0, [r7, #12]
 80002a0:	60b9      	str	r1, [r7, #8]
 80002a2:	607a      	str	r2, [r7, #4]
 80002a4:	603b      	str	r3, [r7, #0]
        TCB_t * pxNewTCB;
        BaseType_t xReturn;

        traceENTER_xTaskCreate( pxTaskCode, pcName, uxStackDepth, pvParameters, uxPriority, pxCreatedTask );

        pxNewTCB = prvCreateTask( pxTaskCode, pcName, uxStackDepth, pvParameters, uxPriority, pxCreatedTask );
 80002a6:	683c      	ldr	r4, [r7, #0]
 80002a8:	687a      	ldr	r2, [r7, #4]
 80002aa:	68b9      	ldr	r1, [r7, #8]
 80002ac:	68f8      	ldr	r0, [r7, #12]
 80002ae:	6afb      	ldr	r3, [r7, #44]	@ 0x2c
 80002b0:	9301      	str	r3, [sp, #4]
 80002b2:	6abb      	ldr	r3, [r7, #40]	@ 0x28
 80002b4:	9300      	str	r3, [sp, #0]
 80002b6:	0023      	movs	r3, r4
 80002b8:	f7ff ffad 	bl	8000216 <prvCreateTask>
 80002bc:	0003      	movs	r3, r0
 80002be:	613b      	str	r3, [r7, #16]

        if( pxNewTCB != NULL )
 80002c0:	693b      	ldr	r3, [r7, #16]
 80002c2:	2b00      	cmp	r3, #0
 80002c4:	d006      	beq.n	80002d4 <xTaskCreate+0x3c>
                /* Set the task's affinity before scheduling it. */
                pxNewTCB->uxCoreAffinityMask = configTASK_DEFAULT_CORE_AFFINITY;
            }
            #endif

            prvAddNewTaskToReadyList( pxNewTCB );
 80002c6:	693b      	ldr	r3, [r7, #16]
 80002c8:	0018      	movs	r0, r3
 80002ca:	f000 f877 	bl	80003bc <prvAddNewTaskToReadyList>
            xReturn = pdPASS;
 80002ce:	2301      	movs	r3, #1
 80002d0:	617b      	str	r3, [r7, #20]
 80002d2:	e002      	b.n	80002da <xTaskCreate+0x42>
        }
        else
        {
            xReturn = errCOULD_NOT_ALLOCATE_REQUIRED_MEMORY;
 80002d4:	2301      	movs	r3, #1
 80002d6:	425b      	negs	r3, r3
 80002d8:	617b      	str	r3, [r7, #20]
        }

        traceRETURN_xTaskCreate( xReturn );

        return xReturn;
 80002da:	697b      	ldr	r3, [r7, #20]
    }
 80002dc:	0018      	movs	r0, r3
 80002de:	46bd      	mov	sp, r7
 80002e0:	b007      	add	sp, #28
 80002e2:	bd90      	pop	{r4, r7, pc}

080002e4 <prvInitialiseNewTask>:
                                  void * const pvParameters,
                                  UBaseType_t uxPriority,
                                  TaskHandle_t * const pxCreatedTask,
                                  TCB_t * pxNewTCB,
                                  const MemoryRegion_t * const xRegions )
{
 80002e4:	b580      	push	{r7, lr}
 80002e6:	b086      	sub	sp, #24
 80002e8:	af00      	add	r7, sp, #0
 80002ea:	60f8      	str	r0, [r7, #12]
 80002ec:	60b9      	str	r1, [r7, #8]
 80002ee:	607a      	str	r2, [r7, #4]
 80002f0:	603b      	str	r3, [r7, #0]
     * grows from high memory to low (as per the 80x86) or vice versa.
     * portSTACK_GROWTH is used to make the result positive or negative as required
     * by the port. */
    #if ( portSTACK_GROWTH < 0 )
    {
        pxTopOfStack = &( pxNewTCB->pxStack[ uxStackDepth - ( configSTACK_DEPTH_TYPE ) 1 ] );
 80002f2:	6abb      	ldr	r3, [r7, #40]	@ 0x28
 80002f4:	6b1a      	ldr	r2, [r3, #48]	@ 0x30
 80002f6:	687b      	ldr	r3, [r7, #4]
 80002f8:	492f      	ldr	r1, [pc, #188]	@ (80003b8 <prvInitialiseNewTask+0xd4>)
 80002fa:	468c      	mov	ip, r1
 80002fc:	4463      	add	r3, ip
 80002fe:	009b      	lsls	r3, r3, #2
 8000300:	18d3      	adds	r3, r2, r3
 8000302:	613b      	str	r3, [r7, #16]
        pxTopOfStack = ( StackType_t * ) ( ( ( portPOINTER_SIZE_TYPE ) pxTopOfStack ) & ( ~( ( portPOINTER_SIZE_TYPE ) portBYTE_ALIGNMENT_MASK ) ) );
 8000304:	693b      	ldr	r3, [r7, #16]
 8000306:	2207      	movs	r2, #7
 8000308:	4393      	bics	r3, r2
 800030a:	613b      	str	r3, [r7, #16]
        pxNewTCB->pxEndOfStack = pxNewTCB->pxStack + ( uxStackDepth - ( configSTACK_DEPTH_TYPE ) 1 );
    }
    #endif /* portSTACK_GROWTH */

    /* Store the task name in the TCB. */
    if( pcName != NULL )
 800030c:	68bb      	ldr	r3, [r7, #8]
 800030e:	2b00      	cmp	r3, #0
 8000310:	d01f      	beq.n	8000352 <prvInitialiseNewTask+0x6e>
    {
        for( x = ( UBaseType_t ) 0; x < ( UBaseType_t ) configMAX_TASK_NAME_LEN; x++ )
 8000312:	2300      	movs	r3, #0
 8000314:	617b      	str	r3, [r7, #20]
 8000316:	e013      	b.n	8000340 <prvInitialiseNewTask+0x5c>
        {
            pxNewTCB->pcTaskName[ x ] = pcName[ x ];
 8000318:	68ba      	ldr	r2, [r7, #8]
 800031a:	697b      	ldr	r3, [r7, #20]
 800031c:	18d3      	adds	r3, r2, r3
 800031e:	7818      	ldrb	r0, [r3, #0]
 8000320:	6aba      	ldr	r2, [r7, #40]	@ 0x28
 8000322:	2134      	movs	r1, #52	@ 0x34
 8000324:	697b      	ldr	r3, [r7, #20]
 8000326:	18d3      	adds	r3, r2, r3
 8000328:	185b      	adds	r3, r3, r1
 800032a:	1c02      	adds	r2, r0, #0
 800032c:	701a      	strb	r2, [r3, #0]

            /* Don't copy all configMAX_TASK_NAME_LEN if the string is shorter than
             * configMAX_TASK_NAME_LEN characters just in case the memory after the
             * string is not accessible (extremely unlikely). */
            if( pcName[ x ] == ( char ) 0x00 )
 800032e:	68ba      	ldr	r2, [r7, #8]
 8000330:	697b      	ldr	r3, [r7, #20]
 8000332:	18d3      	adds	r3, r2, r3
 8000334:	781b      	ldrb	r3, [r3, #0]
 8000336:	2b00      	cmp	r3, #0
 8000338:	d006      	beq.n	8000348 <prvInitialiseNewTask+0x64>
        for( x = ( UBaseType_t ) 0; x < ( UBaseType_t ) configMAX_TASK_NAME_LEN; x++ )
 800033a:	697b      	ldr	r3, [r7, #20]
 800033c:	3301      	adds	r3, #1
 800033e:	617b      	str	r3, [r7, #20]
 8000340:	697b      	ldr	r3, [r7, #20]
 8000342:	2b0b      	cmp	r3, #11
 8000344:	d9e8      	bls.n	8000318 <prvInitialiseNewTask+0x34>
 8000346:	e000      	b.n	800034a <prvInitialiseNewTask+0x66>
            {
                break;
 8000348:	46c0      	nop			@ (mov r8, r8)
            }
        }

        /* Ensure the name string is terminated in the case that the string length
         * was greater or equal to configMAX_TASK_NAME_LEN. */
        pxNewTCB->pcTaskName[ configMAX_TASK_NAME_LEN - 1U ] = '\0';
 800034a:	6abb      	ldr	r3, [r7, #40]	@ 0x28
 800034c:	223f      	movs	r2, #63	@ 0x3f
 800034e:	2100      	movs	r1, #0
 8000350:	5499      	strb	r1, [r3, r2]
    }

    /* This is used as an array index so must ensure it's not too large. */
    configASSERT( uxPriority < configMAX_PRIORITIES );

    if( uxPriority >= ( UBaseType_t ) configMAX_PRIORITIES )
 8000352:	6a3b      	ldr	r3, [r7, #32]
 8000354:	2b04      	cmp	r3, #4
 8000356:	d901      	bls.n	800035c <prvInitialiseNewTask+0x78>
    {
        uxPriority = ( UBaseType_t ) configMAX_PRIORITIES - ( UBaseType_t ) 1U;
 8000358:	2304      	movs	r3, #4
 800035a:	623b      	str	r3, [r7, #32]
    else
    {
        mtCOVERAGE_TEST_MARKER();
    }

    pxNewTCB->uxPriority = uxPriority;
 800035c:	6abb      	ldr	r3, [r7, #40]	@ 0x28
 800035e:	6a3a      	ldr	r2, [r7, #32]
 8000360:	62da      	str	r2, [r3, #44]	@ 0x2c
    #if ( configUSE_MUTEXES == 1 )
    {
        pxNewTCB->uxBasePriority = uxPriority;
 8000362:	6abb      	ldr	r3, [r7, #40]	@ 0x28
 8000364:	6a3a      	ldr	r2, [r7, #32]
 8000366:	641a      	str	r2, [r3, #64]	@ 0x40
    }
    #endif /* configUSE_MUTEXES */

    vListInitialiseItem( &( pxNewTCB->xStateListItem ) );
 8000368:	6abb      	ldr	r3, [r7, #40]	@ 0x28
 800036a:	3304      	adds	r3, #4
 800036c:	0018      	movs	r0, r3
 800036e:	f7ff fee9 	bl	8000144 <vListInitialiseItem>
    vListInitialiseItem( &( pxNewTCB->xEventListItem ) );
 8000372:	6abb      	ldr	r3, [r7, #40]	@ 0x28
 8000374:	3318      	adds	r3, #24
 8000376:	0018      	movs	r0, r3
 8000378:	f7ff fee4 	bl	8000144 <vListInitialiseItem>

    /* Set the pxNewTCB as a link back from the ListItem_t.  This is so we can get
     * back to  the containing TCB from a generic item in a list. */
    listSET_LIST_ITEM_OWNER( &( pxNewTCB->xStateListItem ), pxNewTCB );
 800037c:	6abb      	ldr	r3, [r7, #40]	@ 0x28
 800037e:	6aba      	ldr	r2, [r7, #40]	@ 0x28
 8000380:	611a      	str	r2, [r3, #16]

    /* Event lists are always in priority order. */
    listSET_LIST_ITEM_VALUE( &( pxNewTCB->xEventListItem ), ( TickType_t ) configMAX_PRIORITIES - ( TickType_t ) uxPriority );
 8000382:	6a3b      	ldr	r3, [r7, #32]
 8000384:	2205      	movs	r2, #5
 8000386:	1ad2      	subs	r2, r2, r3
 8000388:	6abb      	ldr	r3, [r7, #40]	@ 0x28
 800038a:	619a      	str	r2, [r3, #24]
    listSET_LIST_ITEM_OWNER( &( pxNewTCB->xEventListItem ), pxNewTCB );
 800038c:	6abb      	ldr	r3, [r7, #40]	@ 0x28
 800038e:	6aba      	ldr	r2, [r7, #40]	@ 0x28
 8000390:	625a      	str	r2, [r3, #36]	@ 0x24
            }
            #endif /* portSTACK_GROWTH */
        }
        #else /* portHAS_STACK_OVERFLOW_CHECKING */
        {
            pxNewTCB->pxTopOfStack = pxPortInitialiseStack( pxTopOfStack, pxTaskCode, pvParameters );
 8000392:	683a      	ldr	r2, [r7, #0]
 8000394:	68f9      	ldr	r1, [r7, #12]
 8000396:	693b      	ldr	r3, [r7, #16]
 8000398:	0018      	movs	r0, r3
 800039a:	f000 fd37 	bl	8000e0c <pxPortInitialiseStack>
 800039e:	0002      	movs	r2, r0
 80003a0:	6abb      	ldr	r3, [r7, #40]	@ 0x28
 80003a2:	601a      	str	r2, [r3, #0]
            pxNewTCB->uxTaskAttributes |= taskATTRIBUTE_IS_IDLE;
        }
    }
    #endif /* #if ( configNUMBER_OF_CORES > 1 ) */

    if( pxCreatedTask != NULL )
 80003a4:	6a7b      	ldr	r3, [r7, #36]	@ 0x24
 80003a6:	2b00      	cmp	r3, #0
 80003a8:	d002      	beq.n	80003b0 <prvInitialiseNewTask+0xcc>
    {
        /* Pass the handle out in an anonymous way.  The handle can be used to
         * change the created task's priority, delete the created task, etc.*/
        *pxCreatedTask = ( TaskHandle_t ) pxNewTCB;
 80003aa:	6a7b      	ldr	r3, [r7, #36]	@ 0x24
 80003ac:	6aba      	ldr	r2, [r7, #40]	@ 0x28
 80003ae:	601a      	str	r2, [r3, #0]
    }
    else
    {
        mtCOVERAGE_TEST_MARKER();
    }
}
 80003b0:	46c0      	nop			@ (mov r8, r8)
 80003b2:	46bd      	mov	sp, r7
 80003b4:	b006      	add	sp, #24
 80003b6:	bd80      	pop	{r7, pc}
 80003b8:	3fffffff 	.word	0x3fffffff

080003bc <prvAddNewTaskToReadyList>:
/*-----------------------------------------------------------*/

#if ( configNUMBER_OF_CORES == 1 )

    STATIC void prvAddNewTaskToReadyList( TCB_t * pxNewTCB )
    {
 80003bc:	b580      	push	{r7, lr}
 80003be:	b084      	sub	sp, #16
 80003c0:	af00      	add	r7, sp, #0
 80003c2:	6078      	str	r0, [r7, #4]
        /* Ensure interrupts don't access the task lists while the lists are being
         * updated. */
        taskENTER_CRITICAL();
 80003c4:	f000 fcca 	bl	8000d5c <vPortEnterCritical>
        {
            uxCurrentNumberOfTasks = ( UBaseType_t ) ( uxCurrentNumberOfTasks + 1U );
 80003c8:	4b3c      	ldr	r3, [pc, #240]	@ (80004bc <prvAddNewTaskToReadyList+0x100>)
 80003ca:	681b      	ldr	r3, [r3, #0]
 80003cc:	1c5a      	adds	r2, r3, #1
 80003ce:	4b3b      	ldr	r3, [pc, #236]	@ (80004bc <prvAddNewTaskToReadyList+0x100>)
 80003d0:	601a      	str	r2, [r3, #0]

            if( pxCurrentTCB == NULL )
 80003d2:	4b3b      	ldr	r3, [pc, #236]	@ (80004c0 <prvAddNewTaskToReadyList+0x104>)
 80003d4:	681b      	ldr	r3, [r3, #0]
 80003d6:	2b00      	cmp	r3, #0
 80003d8:	d109      	bne.n	80003ee <prvAddNewTaskToReadyList+0x32>
            {
                /* There are no other tasks, or all the other tasks are in
                 * the suspended state - make this the current task. */
                pxCurrentTCB = pxNewTCB;
 80003da:	4b39      	ldr	r3, [pc, #228]	@ (80004c0 <prvAddNewTaskToReadyList+0x104>)
 80003dc:	687a      	ldr	r2, [r7, #4]
 80003de:	601a      	str	r2, [r3, #0]

                if( uxCurrentNumberOfTasks == ( UBaseType_t ) 1 )
 80003e0:	4b36      	ldr	r3, [pc, #216]	@ (80004bc <prvAddNewTaskToReadyList+0x100>)
 80003e2:	681b      	ldr	r3, [r3, #0]
 80003e4:	2b01      	cmp	r3, #1
 80003e6:	d110      	bne.n	800040a <prvAddNewTaskToReadyList+0x4e>
                {
                    /* This is the first task to be created so do the preliminary
                     * initialisation required.  We will not recover if this call
                     * fails, but we will report the failure. */
                    prvInitialiseTaskLists();
 80003e8:	f000 fb6e 	bl	8000ac8 <prvInitialiseTaskLists>
 80003ec:	e00d      	b.n	800040a <prvAddNewTaskToReadyList+0x4e>
            else
            {
                /* If the scheduler is not already running, make this task the
                 * current task if it is the highest priority task to be created
                 * so far. */
                if( xSchedulerRunning == pdFALSE )
 80003ee:	4b35      	ldr	r3, [pc, #212]	@ (80004c4 <prvAddNewTaskToReadyList+0x108>)
 80003f0:	681b      	ldr	r3, [r3, #0]
 80003f2:	2b00      	cmp	r3, #0
 80003f4:	d109      	bne.n	800040a <prvAddNewTaskToReadyList+0x4e>
                {
                    if( pxCurrentTCB->uxPriority <= pxNewTCB->uxPriority )
 80003f6:	4b32      	ldr	r3, [pc, #200]	@ (80004c0 <prvAddNewTaskToReadyList+0x104>)
 80003f8:	681b      	ldr	r3, [r3, #0]
 80003fa:	6ada      	ldr	r2, [r3, #44]	@ 0x2c
 80003fc:	687b      	ldr	r3, [r7, #4]
 80003fe:	6adb      	ldr	r3, [r3, #44]	@ 0x2c
 8000400:	429a      	cmp	r2, r3
 8000402:	d802      	bhi.n	800040a <prvAddNewTaskToReadyList+0x4e>
                    {
                        pxCurrentTCB = pxNewTCB;
 8000404:	4b2e      	ldr	r3, [pc, #184]	@ (80004c0 <prvAddNewTaskToReadyList+0x104>)
 8000406:	687a      	ldr	r2, [r7, #4]
 8000408:	601a      	str	r2, [r3, #0]
                {
                    mtCOVERAGE_TEST_MARKER();
                }
            }

            uxTaskNumber++;
 800040a:	4b2f      	ldr	r3, [pc, #188]	@ (80004c8 <prvAddNewTaskToReadyList+0x10c>)
 800040c:	681b      	ldr	r3, [r3, #0]
 800040e:	1c5a      	adds	r2, r3, #1
 8000410:	4b2d      	ldr	r3, [pc, #180]	@ (80004c8 <prvAddNewTaskToReadyList+0x10c>)
 8000412:	601a      	str	r2, [r3, #0]
                pxNewTCB->uxTCBNumber = uxTaskNumber;
            }
            #endif /* configUSE_TRACE_FACILITY */
            traceTASK_CREATE( pxNewTCB );

            prvAddTaskToReadyList( pxNewTCB );
 8000414:	687b      	ldr	r3, [r7, #4]
 8000416:	6ada      	ldr	r2, [r3, #44]	@ 0x2c
 8000418:	4b2c      	ldr	r3, [pc, #176]	@ (80004cc <prvAddNewTaskToReadyList+0x110>)
 800041a:	681b      	ldr	r3, [r3, #0]
 800041c:	429a      	cmp	r2, r3
 800041e:	d903      	bls.n	8000428 <prvAddNewTaskToReadyList+0x6c>
 8000420:	687b      	ldr	r3, [r7, #4]
 8000422:	6ada      	ldr	r2, [r3, #44]	@ 0x2c
 8000424:	4b29      	ldr	r3, [pc, #164]	@ (80004cc <prvAddNewTaskToReadyList+0x110>)
 8000426:	601a      	str	r2, [r3, #0]
 8000428:	687b      	ldr	r3, [r7, #4]
 800042a:	6ada      	ldr	r2, [r3, #44]	@ 0x2c
 800042c:	4928      	ldr	r1, [pc, #160]	@ (80004d0 <prvAddNewTaskToReadyList+0x114>)
 800042e:	0013      	movs	r3, r2
 8000430:	009b      	lsls	r3, r3, #2
 8000432:	189b      	adds	r3, r3, r2
 8000434:	009b      	lsls	r3, r3, #2
 8000436:	18cb      	adds	r3, r1, r3
 8000438:	3304      	adds	r3, #4
 800043a:	681b      	ldr	r3, [r3, #0]
 800043c:	60fb      	str	r3, [r7, #12]
 800043e:	687b      	ldr	r3, [r7, #4]
 8000440:	68fa      	ldr	r2, [r7, #12]
 8000442:	609a      	str	r2, [r3, #8]
 8000444:	68fb      	ldr	r3, [r7, #12]
 8000446:	689a      	ldr	r2, [r3, #8]
 8000448:	687b      	ldr	r3, [r7, #4]
 800044a:	60da      	str	r2, [r3, #12]
 800044c:	68fb      	ldr	r3, [r7, #12]
 800044e:	689b      	ldr	r3, [r3, #8]
 8000450:	687a      	ldr	r2, [r7, #4]
 8000452:	3204      	adds	r2, #4
 8000454:	605a      	str	r2, [r3, #4]
 8000456:	687b      	ldr	r3, [r7, #4]
 8000458:	1d1a      	adds	r2, r3, #4
 800045a:	68fb      	ldr	r3, [r7, #12]
 800045c:	609a      	str	r2, [r3, #8]
 800045e:	687b      	ldr	r3, [r7, #4]
 8000460:	6ada      	ldr	r2, [r3, #44]	@ 0x2c
 8000462:	0013      	movs	r3, r2
 8000464:	009b      	lsls	r3, r3, #2
 8000466:	189b      	adds	r3, r3, r2
 8000468:	009b      	lsls	r3, r3, #2
 800046a:	4a19      	ldr	r2, [pc, #100]	@ (80004d0 <prvAddNewTaskToReadyList+0x114>)
 800046c:	189a      	adds	r2, r3, r2
 800046e:	687b      	ldr	r3, [r7, #4]
 8000470:	615a      	str	r2, [r3, #20]
 8000472:	687b      	ldr	r3, [r7, #4]
 8000474:	6ada      	ldr	r2, [r3, #44]	@ 0x2c
 8000476:	4916      	ldr	r1, [pc, #88]	@ (80004d0 <prvAddNewTaskToReadyList+0x114>)
 8000478:	0013      	movs	r3, r2
 800047a:	009b      	lsls	r3, r3, #2
 800047c:	189b      	adds	r3, r3, r2
 800047e:	009b      	lsls	r3, r3, #2
 8000480:	5859      	ldr	r1, [r3, r1]
 8000482:	687b      	ldr	r3, [r7, #4]
 8000484:	6ada      	ldr	r2, [r3, #44]	@ 0x2c
 8000486:	1c48      	adds	r0, r1, #1
 8000488:	4911      	ldr	r1, [pc, #68]	@ (80004d0 <prvAddNewTaskToReadyList+0x114>)
 800048a:	0013      	movs	r3, r2
 800048c:	009b      	lsls	r3, r3, #2
 800048e:	189b      	adds	r3, r3, r2
 8000490:	009b      	lsls	r3, r3, #2
 8000492:	5058      	str	r0, [r3, r1]

            portSETUP_TCB( pxNewTCB );
        }
        taskEXIT_CRITICAL();
 8000494:	f000 fc74 	bl	8000d80 <vPortExitCritical>

        if( xSchedulerRunning != pdFALSE )
 8000498:	4b0a      	ldr	r3, [pc, #40]	@ (80004c4 <prvAddNewTaskToReadyList+0x108>)
 800049a:	681b      	ldr	r3, [r3, #0]
 800049c:	2b00      	cmp	r3, #0
 800049e:	d008      	beq.n	80004b2 <prvAddNewTaskToReadyList+0xf6>
        {
            /* If the created task is of a higher priority than the current task
             * then it should run now. */
            taskYIELD_ANY_CORE_IF_USING_PREEMPTION( pxNewTCB );
 80004a0:	4b07      	ldr	r3, [pc, #28]	@ (80004c0 <prvAddNewTaskToReadyList+0x104>)
 80004a2:	681b      	ldr	r3, [r3, #0]
 80004a4:	6ada      	ldr	r2, [r3, #44]	@ 0x2c
 80004a6:	687b      	ldr	r3, [r7, #4]
 80004a8:	6adb      	ldr	r3, [r3, #44]	@ 0x2c
 80004aa:	429a      	cmp	r2, r3
 80004ac:	d201      	bcs.n	80004b2 <prvAddNewTaskToReadyList+0xf6>
 80004ae:	f000 fc45 	bl	8000d3c <vPortYield>
        }
        else
        {
            mtCOVERAGE_TEST_MARKER();
        }
    }
 80004b2:	46c0      	nop			@ (mov r8, r8)
 80004b4:	46bd      	mov	sp, r7
 80004b6:	b004      	add	sp, #16
 80004b8:	bd80      	pop	{r7, pc}
 80004ba:	46c0      	nop			@ (mov r8, r8)
 80004bc:	200000f8 	.word	0x200000f8
 80004c0:	20000020 	.word	0x20000020
 80004c4:	20000104 	.word	0x20000104
 80004c8:	20000114 	.word	0x20000114
 80004cc:	20000100 	.word	0x20000100
 80004d0:	20000024 	.word	0x20000024

080004d4 <vTaskDelay>:
/*-----------------------------------------------------------*/

#if ( INCLUDE_vTaskDelay == 1 )

    void vTaskDelay( const TickType_t xTicksToDelay )
    {
 80004d4:	b580      	push	{r7, lr}
 80004d6:	b084      	sub	sp, #16
 80004d8:	af00      	add	r7, sp, #0
 80004da:	6078      	str	r0, [r7, #4]
        BaseType_t xAlreadyYielded = pdFALSE;
 80004dc:	2300      	movs	r3, #0
 80004de:	60fb      	str	r3, [r7, #12]

        traceENTER_vTaskDelay( xTicksToDelay );

        /* A delay time of zero just forces a reschedule. */
        if( xTicksToDelay > ( TickType_t ) 0U )
 80004e0:	687b      	ldr	r3, [r7, #4]
 80004e2:	2b00      	cmp	r3, #0
 80004e4:	d00a      	beq.n	80004fc <vTaskDelay+0x28>
        {
            vTaskSuspendAll();
 80004e6:	f000 f891 	bl	800060c <vTaskSuspendAll>
                 * list or removed from the blocked list until the scheduler
                 * is resumed.
                 *
                 * This task cannot be in an event list as it is the currently
                 * executing task. */
                prvAddCurrentTaskToDelayedList( xTicksToDelay, pdFALSE );
 80004ea:	687b      	ldr	r3, [r7, #4]
 80004ec:	2100      	movs	r1, #0
 80004ee:	0018      	movs	r0, r3
 80004f0:	f000 fb88 	bl	8000c04 <prvAddCurrentTaskToDelayedList>
            }
            xAlreadyYielded = xTaskResumeAll();
 80004f4:	f000 f896 	bl	8000624 <xTaskResumeAll>
 80004f8:	0003      	movs	r3, r0
 80004fa:	60fb      	str	r3, [r7, #12]
            mtCOVERAGE_TEST_MARKER();
        }

        /* Force a reschedule if xTaskResumeAll has not already done so, we may
         * have put ourselves to sleep. */
        if( xAlreadyYielded == pdFALSE )
 80004fc:	68fb      	ldr	r3, [r7, #12]
 80004fe:	2b00      	cmp	r3, #0
 8000500:	d101      	bne.n	8000506 <vTaskDelay+0x32>
        {
            taskYIELD_WITHIN_API();
 8000502:	f000 fc1b 	bl	8000d3c <vPortYield>
        {
            mtCOVERAGE_TEST_MARKER();
        }

        traceRETURN_vTaskDelay();
    }
 8000506:	46c0      	nop			@ (mov r8, r8)
 8000508:	46bd      	mov	sp, r7
 800050a:	b004      	add	sp, #16
 800050c:	bd80      	pop	{r7, pc}
	...

08000510 <prvCreateIdleTasks>:

#endif /* ( ( INCLUDE_xTaskResumeFromISR == 1 ) && ( INCLUDE_vTaskSuspend == 1 ) ) */
/*-----------------------------------------------------------*/

STATIC BaseType_t prvCreateIdleTasks( void )
{
 8000510:	b580      	push	{r7, lr}
 8000512:	b08a      	sub	sp, #40	@ 0x28
 8000514:	af02      	add	r7, sp, #8
    BaseType_t xReturn = pdPASS;
 8000516:	2301      	movs	r3, #1
 8000518:	61fb      	str	r3, [r7, #28]
    BaseType_t xCoreID;
    char cIdleName[ configMAX_TASK_NAME_LEN ] = { 0 };
 800051a:	1d3b      	adds	r3, r7, #4
 800051c:	0018      	movs	r0, r3
 800051e:	230c      	movs	r3, #12
 8000520:	001a      	movs	r2, r3
 8000522:	2100      	movs	r1, #0
 8000524:	f000 ffb7 	bl	8001496 <memset>
    TaskFunction_t pxIdleTaskFunction = NULL;
 8000528:	2300      	movs	r3, #0
 800052a:	613b      	str	r3, [r7, #16]
    UBaseType_t xIdleTaskNameIndex;

    /* MISRA Ref 14.3.1 [Configuration dependent invariant] */
    /* More details at: https://github.com/FreeRTOS/FreeRTOS-Kernel/blob/main/MISRA.md#rule-143. */
    /* coverity[misra_c_2012_rule_14_3_violation] */
    for( xIdleTaskNameIndex = 0U; xIdleTaskNameIndex < ( configMAX_TASK_NAME_LEN - taskRESERVED_TASK_NAME_LENGTH ); xIdleTaskNameIndex++ )
 800052c:	2300      	movs	r3, #0
 800052e:	617b      	str	r3, [r7, #20]
 8000530:	e011      	b.n	8000556 <prvCreateIdleTasks+0x46>
    {
        /* MISRA Ref 18.1.1 [Configuration dependent bounds checking] */
        /* More details at: https://github.com/FreeRTOS/FreeRTOS-Kernel/blob/main/MISRA.md#rule-181. */
        /* coverity[misra_c_2012_rule_18_1_violation] */
        cIdleName[ xIdleTaskNameIndex ] = configIDLE_TASK_NAME[ xIdleTaskNameIndex ];
 8000532:	4a20      	ldr	r2, [pc, #128]	@ (80005b4 <prvCreateIdleTasks+0xa4>)
 8000534:	697b      	ldr	r3, [r7, #20]
 8000536:	18d3      	adds	r3, r2, r3
 8000538:	7819      	ldrb	r1, [r3, #0]
 800053a:	1d3a      	adds	r2, r7, #4
 800053c:	697b      	ldr	r3, [r7, #20]
 800053e:	18d3      	adds	r3, r2, r3
 8000540:	1c0a      	adds	r2, r1, #0
 8000542:	701a      	strb	r2, [r3, #0]

        if( cIdleName[ xIdleTaskNameIndex ] == ( char ) 0x00 )
 8000544:	1d3a      	adds	r2, r7, #4
 8000546:	697b      	ldr	r3, [r7, #20]
 8000548:	18d3      	adds	r3, r2, r3
 800054a:	781b      	ldrb	r3, [r3, #0]
 800054c:	2b00      	cmp	r3, #0
 800054e:	d006      	beq.n	800055e <prvCreateIdleTasks+0x4e>
    for( xIdleTaskNameIndex = 0U; xIdleTaskNameIndex < ( configMAX_TASK_NAME_LEN - taskRESERVED_TASK_NAME_LENGTH ); xIdleTaskNameIndex++ )
 8000550:	697b      	ldr	r3, [r7, #20]
 8000552:	3301      	adds	r3, #1
 8000554:	617b      	str	r3, [r7, #20]
 8000556:	697b      	ldr	r3, [r7, #20]
 8000558:	2b0a      	cmp	r3, #10
 800055a:	d9ea      	bls.n	8000532 <prvCreateIdleTasks+0x22>
 800055c:	e000      	b.n	8000560 <prvCreateIdleTasks+0x50>
        {
            break;
 800055e:	46c0      	nop			@ (mov r8, r8)
            mtCOVERAGE_TEST_MARKER();
        }
    }

    /* Ensure null termination. */
    cIdleName[ xIdleTaskNameIndex ] = '\0';
 8000560:	1d3a      	adds	r2, r7, #4
 8000562:	697b      	ldr	r3, [r7, #20]
 8000564:	18d3      	adds	r3, r2, r3
 8000566:	2200      	movs	r2, #0
 8000568:	701a      	strb	r2, [r3, #0]

    /* Add each idle task at the lowest priority. */
    for( xCoreID = ( BaseType_t ) 0; xCoreID < ( BaseType_t ) configNUMBER_OF_CORES; xCoreID++ )
 800056a:	2300      	movs	r3, #0
 800056c:	61bb      	str	r3, [r7, #24]
 800056e:	e016      	b.n	800059e <prvCreateIdleTasks+0x8e>
    {
        #if ( configNUMBER_OF_CORES == 1 )
        {
            pxIdleTaskFunction = &prvIdleTask;
 8000570:	4b11      	ldr	r3, [pc, #68]	@ (80005b8 <prvCreateIdleTasks+0xa8>)
 8000572:	613b      	str	r3, [r7, #16]
            xReturn = xTaskCreate( pxIdleTaskFunction,
                                   cIdleName,
                                   configMINIMAL_STACK_SIZE,
                                   ( void * ) NULL,
                                   portPRIVILEGE_BIT, /* In effect ( tskIDLE_PRIORITY | portPRIVILEGE_BIT ), but tskIDLE_PRIORITY is zero. */
                                   &xIdleTaskHandles[ xCoreID ] );
 8000574:	69bb      	ldr	r3, [r7, #24]
 8000576:	009a      	lsls	r2, r3, #2
 8000578:	4b10      	ldr	r3, [pc, #64]	@ (80005bc <prvCreateIdleTasks+0xac>)
 800057a:	18d3      	adds	r3, r2, r3
            xReturn = xTaskCreate( pxIdleTaskFunction,
 800057c:	1d39      	adds	r1, r7, #4
 800057e:	6938      	ldr	r0, [r7, #16]
 8000580:	9301      	str	r3, [sp, #4]
 8000582:	2300      	movs	r3, #0
 8000584:	9300      	str	r3, [sp, #0]
 8000586:	2300      	movs	r3, #0
 8000588:	2240      	movs	r2, #64	@ 0x40
 800058a:	f7ff fe85 	bl	8000298 <xTaskCreate>
 800058e:	0003      	movs	r3, r0
 8000590:	61fb      	str	r3, [r7, #28]
        }
        #endif /* configSUPPORT_STATIC_ALLOCATION */

        /* Break the loop if any of the idle task is failed to be created. */
        if( xReturn != pdPASS )
 8000592:	69fb      	ldr	r3, [r7, #28]
 8000594:	2b01      	cmp	r3, #1
 8000596:	d106      	bne.n	80005a6 <prvCreateIdleTasks+0x96>
    for( xCoreID = ( BaseType_t ) 0; xCoreID < ( BaseType_t ) configNUMBER_OF_CORES; xCoreID++ )
 8000598:	69bb      	ldr	r3, [r7, #24]
 800059a:	3301      	adds	r3, #1
 800059c:	61bb      	str	r3, [r7, #24]
 800059e:	69bb      	ldr	r3, [r7, #24]
 80005a0:	2b00      	cmp	r3, #0
 80005a2:	dde5      	ble.n	8000570 <prvCreateIdleTasks+0x60>
 80005a4:	e000      	b.n	80005a8 <prvCreateIdleTasks+0x98>
        {
            break;
 80005a6:	46c0      	nop			@ (mov r8, r8)
            }
            #endif /* if ( configNUMBER_OF_CORES == 1 ) */
        }
    }

    return xReturn;
 80005a8:	69fb      	ldr	r3, [r7, #28]
}
 80005aa:	0018      	movs	r0, r3
 80005ac:	46bd      	mov	sp, r7
 80005ae:	b008      	add	sp, #32
 80005b0:	bd80      	pop	{r7, pc}
 80005b2:	46c0      	nop			@ (mov r8, r8)
 80005b4:	08001508 	.word	0x08001508
 80005b8:	08000aa9 	.word	0x08000aa9
 80005bc:	2000011c 	.word	0x2000011c

080005c0 <vTaskStartScheduler>:

/*-----------------------------------------------------------*/

void vTaskStartScheduler( void )
{
 80005c0:	b580      	push	{r7, lr}
 80005c2:	b082      	sub	sp, #8
 80005c4:	af00      	add	r7, sp, #0
         * the number of bits as confNUMBER_OF_CORES. */
        configASSERT( ( sizeof( UBaseType_t ) * taskBITS_PER_BYTE ) >= configNUMBER_OF_CORES );
    }
    #endif /* #if ( configUSE_CORE_AFFINITY == 1 ) && ( configNUMBER_OF_CORES > 1 ) */

    xReturn = prvCreateIdleTasks();
 80005c6:	f7ff ffa3 	bl	8000510 <prvCreateIdleTasks>
 80005ca:	0003      	movs	r3, r0
 80005cc:	607b      	str	r3, [r7, #4]
            mtCOVERAGE_TEST_MARKER();
        }
    }
    #endif /* configUSE_TIMERS */

    if( xReturn == pdPASS )
 80005ce:	687b      	ldr	r3, [r7, #4]
 80005d0:	2b01      	cmp	r3, #1
 80005d2:	d10c      	bne.n	80005ee <vTaskStartScheduler+0x2e>
        /* Interrupts are turned off here, to ensure a tick does not occur
         * before or during the call to xPortStartScheduler().  The stacks of
         * the created tasks contain a status word with interrupts switched on
         * so interrupts will automatically get re-enabled when the first task
         * starts to run. */
        portDISABLE_INTERRUPTS();
 80005d4:	b672      	cpsid	i
             * block specific to the task that will run first. */
            configSET_TLS_BLOCK( pxCurrentTCB->xTLSBlock );
        }
        #endif

        xNextTaskUnblockTime = portMAX_DELAY;
 80005d6:	4b09      	ldr	r3, [pc, #36]	@ (80005fc <vTaskStartScheduler+0x3c>)
 80005d8:	2201      	movs	r2, #1
 80005da:	4252      	negs	r2, r2
 80005dc:	601a      	str	r2, [r3, #0]
        xSchedulerRunning = pdTRUE;
 80005de:	4b08      	ldr	r3, [pc, #32]	@ (8000600 <vTaskStartScheduler+0x40>)
 80005e0:	2201      	movs	r2, #1
 80005e2:	601a      	str	r2, [r3, #0]
        xTickCount = ( TickType_t ) configINITIAL_TICK_COUNT;
 80005e4:	4b07      	ldr	r3, [pc, #28]	@ (8000604 <vTaskStartScheduler+0x44>)
 80005e6:	2200      	movs	r2, #0
 80005e8:	601a      	str	r2, [r3, #0]
        /* Setting up the timer tick is hardware specific and thus in the
         * portable interface. */

        /* The return value for xPortStartScheduler is not required
         * hence using a void datatype. */
        ( void ) xPortStartScheduler();
 80005ea:	f000 fc9d 	bl	8000f28 <xPortStartScheduler>
     * meaning xIdleTaskHandles are not used anywhere else. */
    ( void ) xIdleTaskHandles;

    /* OpenOCD makes use of uxTopUsedPriority for thread debugging. Prevent uxTopUsedPriority
     * from getting optimized out as it is no longer used by the kernel. */
    ( void ) uxTopUsedPriority;
 80005ee:	4b06      	ldr	r3, [pc, #24]	@ (8000608 <vTaskStartScheduler+0x48>)
 80005f0:	681b      	ldr	r3, [r3, #0]

    traceRETURN_vTaskStartScheduler();
}
 80005f2:	46c0      	nop			@ (mov r8, r8)
 80005f4:	46bd      	mov	sp, r7
 80005f6:	b002      	add	sp, #8
 80005f8:	bd80      	pop	{r7, pc}
 80005fa:	46c0      	nop			@ (mov r8, r8)
 80005fc:	20000118 	.word	0x20000118
 8000600:	20000104 	.word	0x20000104
 8000604:	200000fc 	.word	0x200000fc
 8000608:	08001518 	.word	0x08001518

0800060c <vTaskSuspendAll>:
    traceRETURN_vTaskEndScheduler();
}
/*----------------------------------------------------------*/

void vTaskSuspendAll( void )
{
 800060c:	b580      	push	{r7, lr}
 800060e:	af00      	add	r7, sp, #0
         * do not otherwise exhibit real time behaviour. */
        portSOFTWARE_BARRIER();

        /* The scheduler is suspended if uxSchedulerSuspended is non-zero.  An increment
         * is used to allow calls to vTaskSuspendAll() to nest. */
        uxSchedulerSuspended = ( UBaseType_t ) ( uxSchedulerSuspended + 1U );
 8000610:	4b03      	ldr	r3, [pc, #12]	@ (8000620 <vTaskSuspendAll+0x14>)
 8000612:	681b      	ldr	r3, [r3, #0]
 8000614:	1c5a      	adds	r2, r3, #1
 8000616:	4b02      	ldr	r3, [pc, #8]	@ (8000620 <vTaskSuspendAll+0x14>)
 8000618:	601a      	str	r2, [r3, #0]
        }
    }
    #endif /* #if ( configNUMBER_OF_CORES == 1 ) */

    traceRETURN_vTaskSuspendAll();
}
 800061a:	46c0      	nop			@ (mov r8, r8)
 800061c:	46bd      	mov	sp, r7
 800061e:	bd80      	pop	{r7, pc}
 8000620:	20000120 	.word	0x20000120

08000624 <xTaskResumeAll>:

#endif /* configUSE_TICKLESS_IDLE */
/*----------------------------------------------------------*/

BaseType_t xTaskResumeAll( void )
{
 8000624:	b580      	push	{r7, lr}
 8000626:	b088      	sub	sp, #32
 8000628:	af00      	add	r7, sp, #0
    TCB_t * pxTCB = NULL;
 800062a:	2300      	movs	r3, #0
 800062c:	61fb      	str	r3, [r7, #28]
    BaseType_t xAlreadyYielded = pdFALSE;
 800062e:	2300      	movs	r3, #0
 8000630:	61bb      	str	r3, [r7, #24]
        /* It is possible that an ISR caused a task to be removed from an event
         * list while the scheduler was suspended.  If this was the case then the
         * removed task will have been added to the xPendingReadyList.  Once the
         * scheduler has been resumed it is safe to move all the pending ready
         * tasks from this list into their appropriate ready list. */
        taskENTER_CRITICAL();
 8000632:	f000 fb93 	bl	8000d5c <vPortEnterCritical>
        {
            const BaseType_t xCoreID = ( BaseType_t ) portGET_CORE_ID();
 8000636:	2300      	movs	r3, #0
 8000638:	613b      	str	r3, [r7, #16]

            /* If uxSchedulerSuspended is zero then this function does not match a
             * previous call to vTaskSuspendAll(). */
            configASSERT( uxSchedulerSuspended != 0U );

            uxSchedulerSuspended = ( UBaseType_t ) ( uxSchedulerSuspended - 1U );
 800063a:	4b69      	ldr	r3, [pc, #420]	@ (80007e0 <xTaskResumeAll+0x1bc>)
 800063c:	681b      	ldr	r3, [r3, #0]
 800063e:	1e5a      	subs	r2, r3, #1
 8000640:	4b67      	ldr	r3, [pc, #412]	@ (80007e0 <xTaskResumeAll+0x1bc>)
 8000642:	601a      	str	r2, [r3, #0]
            portRELEASE_TASK_LOCK( xCoreID );

            if( uxSchedulerSuspended == ( UBaseType_t ) 0U )
 8000644:	4b66      	ldr	r3, [pc, #408]	@ (80007e0 <xTaskResumeAll+0x1bc>)
 8000646:	681b      	ldr	r3, [r3, #0]
 8000648:	2b00      	cmp	r3, #0
 800064a:	d000      	beq.n	800064e <xTaskResumeAll+0x2a>
 800064c:	e0c1      	b.n	80007d2 <xTaskResumeAll+0x1ae>
            {
                if( uxCurrentNumberOfTasks > ( UBaseType_t ) 0U )
 800064e:	4b65      	ldr	r3, [pc, #404]	@ (80007e4 <xTaskResumeAll+0x1c0>)
 8000650:	681b      	ldr	r3, [r3, #0]
 8000652:	2b00      	cmp	r3, #0
 8000654:	d100      	bne.n	8000658 <xTaskResumeAll+0x34>
 8000656:	e0bc      	b.n	80007d2 <xTaskResumeAll+0x1ae>
                {
                    /* Move any readied tasks from the pending list into the
                     * appropriate ready list. */
                    while( listLIST_IS_EMPTY( &xPendingReadyList ) == pdFALSE )
 8000658:	e08d      	b.n	8000776 <xTaskResumeAll+0x152>
                    {
                        /* MISRA Ref 11.5.3 [Void pointer assignment] */
                        /* More details at: https://github.com/FreeRTOS/FreeRTOS-Kernel/blob/main/MISRA.md#rule-115 */
                        /* coverity[misra_c_2012_rule_11_5_violation] */
                        pxTCB = listGET_OWNER_OF_HEAD_ENTRY( ( &xPendingReadyList ) );
 800065a:	4b63      	ldr	r3, [pc, #396]	@ (80007e8 <xTaskResumeAll+0x1c4>)
 800065c:	68db      	ldr	r3, [r3, #12]
 800065e:	68db      	ldr	r3, [r3, #12]
 8000660:	61fb      	str	r3, [r7, #28]
                        listREMOVE_ITEM( &( pxTCB->xEventListItem ) );
 8000662:	69fb      	ldr	r3, [r7, #28]
 8000664:	6a9b      	ldr	r3, [r3, #40]	@ 0x28
 8000666:	60fb      	str	r3, [r7, #12]
 8000668:	69fb      	ldr	r3, [r7, #28]
 800066a:	69db      	ldr	r3, [r3, #28]
 800066c:	69fa      	ldr	r2, [r7, #28]
 800066e:	6a12      	ldr	r2, [r2, #32]
 8000670:	609a      	str	r2, [r3, #8]
 8000672:	69fb      	ldr	r3, [r7, #28]
 8000674:	6a1b      	ldr	r3, [r3, #32]
 8000676:	69fa      	ldr	r2, [r7, #28]
 8000678:	69d2      	ldr	r2, [r2, #28]
 800067a:	605a      	str	r2, [r3, #4]
 800067c:	68fb      	ldr	r3, [r7, #12]
 800067e:	685a      	ldr	r2, [r3, #4]
 8000680:	69fb      	ldr	r3, [r7, #28]
 8000682:	3318      	adds	r3, #24
 8000684:	429a      	cmp	r2, r3
 8000686:	d103      	bne.n	8000690 <xTaskResumeAll+0x6c>
 8000688:	69fb      	ldr	r3, [r7, #28]
 800068a:	6a1a      	ldr	r2, [r3, #32]
 800068c:	68fb      	ldr	r3, [r7, #12]
 800068e:	605a      	str	r2, [r3, #4]
 8000690:	69fb      	ldr	r3, [r7, #28]
 8000692:	2200      	movs	r2, #0
 8000694:	629a      	str	r2, [r3, #40]	@ 0x28
 8000696:	68fb      	ldr	r3, [r7, #12]
 8000698:	681b      	ldr	r3, [r3, #0]
 800069a:	1e5a      	subs	r2, r3, #1
 800069c:	68fb      	ldr	r3, [r7, #12]
 800069e:	601a      	str	r2, [r3, #0]
                        portMEMORY_BARRIER();
                        listREMOVE_ITEM( &( pxTCB->xStateListItem ) );
 80006a0:	69fb      	ldr	r3, [r7, #28]
 80006a2:	695b      	ldr	r3, [r3, #20]
 80006a4:	60bb      	str	r3, [r7, #8]
 80006a6:	69fb      	ldr	r3, [r7, #28]
 80006a8:	689b      	ldr	r3, [r3, #8]
 80006aa:	69fa      	ldr	r2, [r7, #28]
 80006ac:	68d2      	ldr	r2, [r2, #12]
 80006ae:	609a      	str	r2, [r3, #8]
 80006b0:	69fb      	ldr	r3, [r7, #28]
 80006b2:	68db      	ldr	r3, [r3, #12]
 80006b4:	69fa      	ldr	r2, [r7, #28]
 80006b6:	6892      	ldr	r2, [r2, #8]
 80006b8:	605a      	str	r2, [r3, #4]
 80006ba:	68bb      	ldr	r3, [r7, #8]
 80006bc:	685a      	ldr	r2, [r3, #4]
 80006be:	69fb      	ldr	r3, [r7, #28]
 80006c0:	3304      	adds	r3, #4
 80006c2:	429a      	cmp	r2, r3
 80006c4:	d103      	bne.n	80006ce <xTaskResumeAll+0xaa>
 80006c6:	69fb      	ldr	r3, [r7, #28]
 80006c8:	68da      	ldr	r2, [r3, #12]
 80006ca:	68bb      	ldr	r3, [r7, #8]
 80006cc:	605a      	str	r2, [r3, #4]
 80006ce:	69fb      	ldr	r3, [r7, #28]
 80006d0:	2200      	movs	r2, #0
 80006d2:	615a      	str	r2, [r3, #20]
 80006d4:	68bb      	ldr	r3, [r7, #8]
 80006d6:	681b      	ldr	r3, [r3, #0]
 80006d8:	1e5a      	subs	r2, r3, #1
 80006da:	68bb      	ldr	r3, [r7, #8]
 80006dc:	601a      	str	r2, [r3, #0]
                        prvAddTaskToReadyList( pxTCB );
 80006de:	69fb      	ldr	r3, [r7, #28]
 80006e0:	6ada      	ldr	r2, [r3, #44]	@ 0x2c
 80006e2:	4b42      	ldr	r3, [pc, #264]	@ (80007ec <xTaskResumeAll+0x1c8>)
 80006e4:	681b      	ldr	r3, [r3, #0]
 80006e6:	429a      	cmp	r2, r3
 80006e8:	d903      	bls.n	80006f2 <xTaskResumeAll+0xce>
 80006ea:	69fb      	ldr	r3, [r7, #28]
 80006ec:	6ada      	ldr	r2, [r3, #44]	@ 0x2c
 80006ee:	4b3f      	ldr	r3, [pc, #252]	@ (80007ec <xTaskResumeAll+0x1c8>)
 80006f0:	601a      	str	r2, [r3, #0]
 80006f2:	69fb      	ldr	r3, [r7, #28]
 80006f4:	6ada      	ldr	r2, [r3, #44]	@ 0x2c
 80006f6:	493e      	ldr	r1, [pc, #248]	@ (80007f0 <xTaskResumeAll+0x1cc>)
 80006f8:	0013      	movs	r3, r2
 80006fa:	009b      	lsls	r3, r3, #2
 80006fc:	189b      	adds	r3, r3, r2
 80006fe:	009b      	lsls	r3, r3, #2
 8000700:	18cb      	adds	r3, r1, r3
 8000702:	3304      	adds	r3, #4
 8000704:	681b      	ldr	r3, [r3, #0]
 8000706:	607b      	str	r3, [r7, #4]
 8000708:	69fb      	ldr	r3, [r7, #28]
 800070a:	687a      	ldr	r2, [r7, #4]
 800070c:	609a      	str	r2, [r3, #8]
 800070e:	687b      	ldr	r3, [r7, #4]
 8000710:	689a      	ldr	r2, [r3, #8]
 8000712:	69fb      	ldr	r3, [r7, #28]
 8000714:	60da      	str	r2, [r3, #12]
 8000716:	687b      	ldr	r3, [r7, #4]
 8000718:	689b      	ldr	r3, [r3, #8]
 800071a:	69fa      	ldr	r2, [r7, #28]
 800071c:	3204      	adds	r2, #4
 800071e:	605a      	str	r2, [r3, #4]
 8000720:	69fb      	ldr	r3, [r7, #28]
 8000722:	1d1a      	adds	r2, r3, #4
 8000724:	687b      	ldr	r3, [r7, #4]
 8000726:	609a      	str	r2, [r3, #8]
 8000728:	69fb      	ldr	r3, [r7, #28]
 800072a:	6ada      	ldr	r2, [r3, #44]	@ 0x2c
 800072c:	0013      	movs	r3, r2
 800072e:	009b      	lsls	r3, r3, #2
 8000730:	189b      	adds	r3, r3, r2
 8000732:	009b      	lsls	r3, r3, #2
 8000734:	4a2e      	ldr	r2, [pc, #184]	@ (80007f0 <xTaskResumeAll+0x1cc>)
 8000736:	189a      	adds	r2, r3, r2
 8000738:	69fb      	ldr	r3, [r7, #28]
 800073a:	615a      	str	r2, [r3, #20]
 800073c:	69fb      	ldr	r3, [r7, #28]
 800073e:	6ada      	ldr	r2, [r3, #44]	@ 0x2c
 8000740:	492b      	ldr	r1, [pc, #172]	@ (80007f0 <xTaskResumeAll+0x1cc>)
 8000742:	0013      	movs	r3, r2
 8000744:	009b      	lsls	r3, r3, #2
 8000746:	189b      	adds	r3, r3, r2
 8000748:	009b      	lsls	r3, r3, #2
 800074a:	5859      	ldr	r1, [r3, r1]
 800074c:	69fb      	ldr	r3, [r7, #28]
 800074e:	6ada      	ldr	r2, [r3, #44]	@ 0x2c
 8000750:	1c48      	adds	r0, r1, #1
 8000752:	4927      	ldr	r1, [pc, #156]	@ (80007f0 <xTaskResumeAll+0x1cc>)
 8000754:	0013      	movs	r3, r2
 8000756:	009b      	lsls	r3, r3, #2
 8000758:	189b      	adds	r3, r3, r2
 800075a:	009b      	lsls	r3, r3, #2
 800075c:	5058      	str	r0, [r3, r1]

                        #if ( configNUMBER_OF_CORES == 1 )
                        {
                            /* If the moved task has a priority higher than the current
                             * task then a yield must be performed. */
                            if( pxTCB->uxPriority > pxCurrentTCB->uxPriority )
 800075e:	69fb      	ldr	r3, [r7, #28]
 8000760:	6ada      	ldr	r2, [r3, #44]	@ 0x2c
 8000762:	4b24      	ldr	r3, [pc, #144]	@ (80007f4 <xTaskResumeAll+0x1d0>)
 8000764:	681b      	ldr	r3, [r3, #0]
 8000766:	6adb      	ldr	r3, [r3, #44]	@ 0x2c
 8000768:	429a      	cmp	r2, r3
 800076a:	d904      	bls.n	8000776 <xTaskResumeAll+0x152>
                            {
                                xYieldPendings[ xCoreID ] = pdTRUE;
 800076c:	4b22      	ldr	r3, [pc, #136]	@ (80007f8 <xTaskResumeAll+0x1d4>)
 800076e:	693a      	ldr	r2, [r7, #16]
 8000770:	0092      	lsls	r2, r2, #2
 8000772:	2101      	movs	r1, #1
 8000774:	50d1      	str	r1, [r2, r3]
                    while( listLIST_IS_EMPTY( &xPendingReadyList ) == pdFALSE )
 8000776:	4b1c      	ldr	r3, [pc, #112]	@ (80007e8 <xTaskResumeAll+0x1c4>)
 8000778:	681b      	ldr	r3, [r3, #0]
 800077a:	2b00      	cmp	r3, #0
 800077c:	d000      	beq.n	8000780 <xTaskResumeAll+0x15c>
 800077e:	e76c      	b.n	800065a <xTaskResumeAll+0x36>
                             * which sets xYieldPendings for the current core to pdTRUE. */
                        }
                        #endif /* #if ( configNUMBER_OF_CORES == 1 ) */
                    }

                    if( pxTCB != NULL )
 8000780:	69fb      	ldr	r3, [r7, #28]
 8000782:	2b00      	cmp	r3, #0
 8000784:	d001      	beq.n	800078a <xTaskResumeAll+0x166>
                         * which may have prevented the next unblock time from being
                         * re-calculated, in which case re-calculate it now.  Mainly
                         * important for low power tickless implementations, where
                         * this can prevent an unnecessary exit from low power
                         * state. */
                        prvResetNextTaskUnblockTime();
 8000786:	f000 fa23 	bl	8000bd0 <prvResetNextTaskUnblockTime>
                     * It should be safe to call xTaskIncrementTick here from any core
                     * since we are in a critical section and xTaskIncrementTick itself
                     * protects itself within a critical section. Suspending the scheduler
                     * from any core causes xTaskIncrementTick to increment uxPendedCounts. */
                    {
                        TickType_t xPendedCounts = xPendedTicks; /* Non-volatile copy. */
 800078a:	4b1c      	ldr	r3, [pc, #112]	@ (80007fc <xTaskResumeAll+0x1d8>)
 800078c:	681b      	ldr	r3, [r3, #0]
 800078e:	617b      	str	r3, [r7, #20]

                        if( xPendedCounts > ( TickType_t ) 0U )
 8000790:	697b      	ldr	r3, [r7, #20]
 8000792:	2b00      	cmp	r3, #0
 8000794:	d011      	beq.n	80007ba <xTaskResumeAll+0x196>
                        {
                            do
                            {
                                if( xTaskIncrementTick() != pdFALSE )
 8000796:	f000 f833 	bl	8000800 <xTaskIncrementTick>
 800079a:	1e03      	subs	r3, r0, #0
 800079c:	d004      	beq.n	80007a8 <xTaskResumeAll+0x184>
                                {
                                    /* Other cores are interrupted from
                                     * within xTaskIncrementTick(). */
                                    xYieldPendings[ xCoreID ] = pdTRUE;
 800079e:	4b16      	ldr	r3, [pc, #88]	@ (80007f8 <xTaskResumeAll+0x1d4>)
 80007a0:	693a      	ldr	r2, [r7, #16]
 80007a2:	0092      	lsls	r2, r2, #2
 80007a4:	2101      	movs	r1, #1
 80007a6:	50d1      	str	r1, [r2, r3]
                                else
                                {
                                    mtCOVERAGE_TEST_MARKER();
                                }

                                --xPendedCounts;
 80007a8:	697b      	ldr	r3, [r7, #20]
 80007aa:	3b01      	subs	r3, #1
 80007ac:	617b      	str	r3, [r7, #20]
                            } while( xPendedCounts > ( TickType_t ) 0U );
 80007ae:	697b      	ldr	r3, [r7, #20]
 80007b0:	2b00      	cmp	r3, #0
 80007b2:	d1f0      	bne.n	8000796 <xTaskResumeAll+0x172>

                            xPendedTicks = 0;
 80007b4:	4b11      	ldr	r3, [pc, #68]	@ (80007fc <xTaskResumeAll+0x1d8>)
 80007b6:	2200      	movs	r2, #0
 80007b8:	601a      	str	r2, [r3, #0]
                        {
                            mtCOVERAGE_TEST_MARKER();
                        }
                    }

                    if( xYieldPendings[ xCoreID ] != pdFALSE )
 80007ba:	4b0f      	ldr	r3, [pc, #60]	@ (80007f8 <xTaskResumeAll+0x1d4>)
 80007bc:	693a      	ldr	r2, [r7, #16]
 80007be:	0092      	lsls	r2, r2, #2
 80007c0:	58d3      	ldr	r3, [r2, r3]
 80007c2:	2b00      	cmp	r3, #0
 80007c4:	d005      	beq.n	80007d2 <xTaskResumeAll+0x1ae>
                    {
                        #if ( configUSE_PREEMPTION != 0 )
                        {
                            xAlreadyYielded = pdTRUE;
 80007c6:	2301      	movs	r3, #1
 80007c8:	61bb      	str	r3, [r7, #24]
                        }
                        #endif /* #if ( configUSE_PREEMPTION != 0 ) */

                        #if ( configNUMBER_OF_CORES == 1 )
                        {
                            taskYIELD_TASK_CORE_IF_USING_PREEMPTION( pxCurrentTCB );
 80007ca:	4b0a      	ldr	r3, [pc, #40]	@ (80007f4 <xTaskResumeAll+0x1d0>)
 80007cc:	681b      	ldr	r3, [r3, #0]
 80007ce:	f000 fab5 	bl	8000d3c <vPortYield>
            else
            {
                mtCOVERAGE_TEST_MARKER();
            }
        }
        taskEXIT_CRITICAL();
 80007d2:	f000 fad5 	bl	8000d80 <vPortExitCritical>
    }

    traceRETURN_xTaskResumeAll( xAlreadyYielded );

    return xAlreadyYielded;
 80007d6:	69bb      	ldr	r3, [r7, #24]
}
 80007d8:	0018      	movs	r0, r3
 80007da:	46bd      	mov	sp, r7
 80007dc:	b008      	add	sp, #32
 80007de:	bd80      	pop	{r7, pc}
 80007e0:	20000120 	.word	0x20000120
 80007e4:	200000f8 	.word	0x200000f8
 80007e8:	200000b8 	.word	0x200000b8
 80007ec:	20000100 	.word	0x20000100
 80007f0:	20000024 	.word	0x20000024
 80007f4:	20000020 	.word	0x20000020
 80007f8:	2000010c 	.word	0x2000010c
 80007fc:	20000108 	.word	0x20000108

08000800 <xTaskIncrementTick>:

#endif /* INCLUDE_xTaskAbortDelay */
/*----------------------------------------------------------*/

BaseType_t xTaskIncrementTick( void )
{
 8000800:	b580      	push	{r7, lr}
 8000802:	b088      	sub	sp, #32
 8000804:	af00      	add	r7, sp, #0
    TCB_t * pxTCB;
    TickType_t xItemValue;
    BaseType_t xSwitchRequired = pdFALSE;
 8000806:	2300      	movs	r3, #0
 8000808:	61fb      	str	r3, [r7, #28]

    /* Tick increment should occur on every kernel timer event. Core 0 has the
     * responsibility to increment the tick, or increment the pended ticks if the
     * scheduler is suspended.  If pended ticks is greater than zero, the core that
     * calls xTaskResumeAll has the responsibility to increment the tick. */
    if( uxSchedulerSuspended == ( UBaseType_t ) 0U )
 800080a:	4b75      	ldr	r3, [pc, #468]	@ (80009e0 <xTaskIncrementTick+0x1e0>)
 800080c:	681b      	ldr	r3, [r3, #0]
 800080e:	2b00      	cmp	r3, #0
 8000810:	d000      	beq.n	8000814 <xTaskIncrementTick+0x14>
 8000812:	e0db      	b.n	80009cc <xTaskIncrementTick+0x1cc>
    {
        /* Minor optimisation.  The tick count cannot change in this
         * block. */
        const TickType_t xConstTickCount = xTickCount + ( TickType_t ) 1;
 8000814:	4b73      	ldr	r3, [pc, #460]	@ (80009e4 <xTaskIncrementTick+0x1e4>)
 8000816:	681b      	ldr	r3, [r3, #0]
 8000818:	3301      	adds	r3, #1
 800081a:	61bb      	str	r3, [r7, #24]

        /* Increment the RTOS tick, switching the delayed and overflowed
         * delayed lists if it wraps to 0. */
        xTickCount = xConstTickCount;
 800081c:	4b71      	ldr	r3, [pc, #452]	@ (80009e4 <xTaskIncrementTick+0x1e4>)
 800081e:	69ba      	ldr	r2, [r7, #24]
 8000820:	601a      	str	r2, [r3, #0]

        if( xConstTickCount == ( TickType_t ) 0U )
 8000822:	69bb      	ldr	r3, [r7, #24]
 8000824:	2b00      	cmp	r3, #0
 8000826:	d110      	bne.n	800084a <xTaskIncrementTick+0x4a>
        {
            taskSWITCH_DELAYED_LISTS();
 8000828:	4b6f      	ldr	r3, [pc, #444]	@ (80009e8 <xTaskIncrementTick+0x1e8>)
 800082a:	681b      	ldr	r3, [r3, #0]
 800082c:	617b      	str	r3, [r7, #20]
 800082e:	4b6f      	ldr	r3, [pc, #444]	@ (80009ec <xTaskIncrementTick+0x1ec>)
 8000830:	681a      	ldr	r2, [r3, #0]
 8000832:	4b6d      	ldr	r3, [pc, #436]	@ (80009e8 <xTaskIncrementTick+0x1e8>)
 8000834:	601a      	str	r2, [r3, #0]
 8000836:	4b6d      	ldr	r3, [pc, #436]	@ (80009ec <xTaskIncrementTick+0x1ec>)
 8000838:	697a      	ldr	r2, [r7, #20]
 800083a:	601a      	str	r2, [r3, #0]
 800083c:	4b6c      	ldr	r3, [pc, #432]	@ (80009f0 <xTaskIncrementTick+0x1f0>)
 800083e:	681b      	ldr	r3, [r3, #0]
 8000840:	1c5a      	adds	r2, r3, #1
 8000842:	4b6b      	ldr	r3, [pc, #428]	@ (80009f0 <xTaskIncrementTick+0x1f0>)
 8000844:	601a      	str	r2, [r3, #0]
 8000846:	f000 f9c3 	bl	8000bd0 <prvResetNextTaskUnblockTime>

        /* See if this tick has made a timeout expire.  Tasks are stored in
         * the  queue in the order of their wake time - meaning once one task
         * has been found whose block time has not expired there is no need to
         * look any further down the list. */
        if( xConstTickCount >= xNextTaskUnblockTime )
 800084a:	4b6a      	ldr	r3, [pc, #424]	@ (80009f4 <xTaskIncrementTick+0x1f4>)
 800084c:	681b      	ldr	r3, [r3, #0]
 800084e:	69ba      	ldr	r2, [r7, #24]
 8000850:	429a      	cmp	r2, r3
 8000852:	d200      	bcs.n	8000856 <xTaskIncrementTick+0x56>
 8000854:	e0a6      	b.n	80009a4 <xTaskIncrementTick+0x1a4>
        {
            for( ; ; )
            {
                if( listLIST_IS_EMPTY( pxDelayedTaskList ) != pdFALSE )
 8000856:	4b64      	ldr	r3, [pc, #400]	@ (80009e8 <xTaskIncrementTick+0x1e8>)
 8000858:	681b      	ldr	r3, [r3, #0]
 800085a:	681b      	ldr	r3, [r3, #0]
 800085c:	2b00      	cmp	r3, #0
 800085e:	d104      	bne.n	800086a <xTaskIncrementTick+0x6a>
                    /* The delayed list is empty.  Set xNextTaskUnblockTime
                     * to the maximum possible value so it is extremely
                     * unlikely that the
                     * if( xTickCount >= xNextTaskUnblockTime ) test will pass
                     * next time through. */
                    xNextTaskUnblockTime = portMAX_DELAY;
 8000860:	4b64      	ldr	r3, [pc, #400]	@ (80009f4 <xTaskIncrementTick+0x1f4>)
 8000862:	2201      	movs	r2, #1
 8000864:	4252      	negs	r2, r2
 8000866:	601a      	str	r2, [r3, #0]
                    break;
 8000868:	e09c      	b.n	80009a4 <xTaskIncrementTick+0x1a4>
                     * at which the task at the head of the delayed list must
                     * be removed from the Blocked state. */
                    /* MISRA Ref 11.5.3 [Void pointer assignment] */
                    /* More details at: https://github.com/FreeRTOS/FreeRTOS-Kernel/blob/main/MISRA.md#rule-115 */
                    /* coverity[misra_c_2012_rule_11_5_violation] */
                    pxTCB = listGET_OWNER_OF_HEAD_ENTRY( pxDelayedTaskList );
 800086a:	4b5f      	ldr	r3, [pc, #380]	@ (80009e8 <xTaskIncrementTick+0x1e8>)
 800086c:	681b      	ldr	r3, [r3, #0]
 800086e:	68db      	ldr	r3, [r3, #12]
 8000870:	68db      	ldr	r3, [r3, #12]
 8000872:	613b      	str	r3, [r7, #16]
                    xItemValue = listGET_LIST_ITEM_VALUE( &( pxTCB->xStateListItem ) );
 8000874:	693b      	ldr	r3, [r7, #16]
 8000876:	685b      	ldr	r3, [r3, #4]
 8000878:	60fb      	str	r3, [r7, #12]

                    if( xConstTickCount < xItemValue )
 800087a:	69ba      	ldr	r2, [r7, #24]
 800087c:	68fb      	ldr	r3, [r7, #12]
 800087e:	429a      	cmp	r2, r3
 8000880:	d203      	bcs.n	800088a <xTaskIncrementTick+0x8a>
                        /* It is not time to unblock this item yet, but the
                         * item value is the time at which the task at the head
                         * of the blocked list must be removed from the Blocked
                         * state -  so record the item value in
                         * xNextTaskUnblockTime. */
                        xNextTaskUnblockTime = xItemValue;
 8000882:	4b5c      	ldr	r3, [pc, #368]	@ (80009f4 <xTaskIncrementTick+0x1f4>)
 8000884:	68fa      	ldr	r2, [r7, #12]
 8000886:	601a      	str	r2, [r3, #0]
                        break;
 8000888:	e08c      	b.n	80009a4 <xTaskIncrementTick+0x1a4>
                    {
                        mtCOVERAGE_TEST_MARKER();
                    }

                    /* It is time to remove the item from the Blocked state. */
                    listREMOVE_ITEM( &( pxTCB->xStateListItem ) );
 800088a:	693b      	ldr	r3, [r7, #16]
 800088c:	695b      	ldr	r3, [r3, #20]
 800088e:	60bb      	str	r3, [r7, #8]
 8000890:	693b      	ldr	r3, [r7, #16]
 8000892:	689b      	ldr	r3, [r3, #8]
 8000894:	693a      	ldr	r2, [r7, #16]
 8000896:	68d2      	ldr	r2, [r2, #12]
 8000898:	609a      	str	r2, [r3, #8]
 800089a:	693b      	ldr	r3, [r7, #16]
 800089c:	68db      	ldr	r3, [r3, #12]
 800089e:	693a      	ldr	r2, [r7, #16]
 80008a0:	6892      	ldr	r2, [r2, #8]
 80008a2:	605a      	str	r2, [r3, #4]
 80008a4:	68bb      	ldr	r3, [r7, #8]
 80008a6:	685a      	ldr	r2, [r3, #4]
 80008a8:	693b      	ldr	r3, [r7, #16]
 80008aa:	3304      	adds	r3, #4
 80008ac:	429a      	cmp	r2, r3
 80008ae:	d103      	bne.n	80008b8 <xTaskIncrementTick+0xb8>
 80008b0:	693b      	ldr	r3, [r7, #16]
 80008b2:	68da      	ldr	r2, [r3, #12]
 80008b4:	68bb      	ldr	r3, [r7, #8]
 80008b6:	605a      	str	r2, [r3, #4]
 80008b8:	693b      	ldr	r3, [r7, #16]
 80008ba:	2200      	movs	r2, #0
 80008bc:	615a      	str	r2, [r3, #20]
 80008be:	68bb      	ldr	r3, [r7, #8]
 80008c0:	681b      	ldr	r3, [r3, #0]
 80008c2:	1e5a      	subs	r2, r3, #1
 80008c4:	68bb      	ldr	r3, [r7, #8]
 80008c6:	601a      	str	r2, [r3, #0]

                    /* Is the task waiting on an event also?  If so remove
                     * it from the event list. */
                    if( listLIST_ITEM_CONTAINER( &( pxTCB->xEventListItem ) ) != NULL )
 80008c8:	693b      	ldr	r3, [r7, #16]
 80008ca:	6a9b      	ldr	r3, [r3, #40]	@ 0x28
 80008cc:	2b00      	cmp	r3, #0
 80008ce:	d01e      	beq.n	800090e <xTaskIncrementTick+0x10e>
                    {
                        listREMOVE_ITEM( &( pxTCB->xEventListItem ) );
 80008d0:	693b      	ldr	r3, [r7, #16]
 80008d2:	6a9b      	ldr	r3, [r3, #40]	@ 0x28
 80008d4:	607b      	str	r3, [r7, #4]
 80008d6:	693b      	ldr	r3, [r7, #16]
 80008d8:	69db      	ldr	r3, [r3, #28]
 80008da:	693a      	ldr	r2, [r7, #16]
 80008dc:	6a12      	ldr	r2, [r2, #32]
 80008de:	609a      	str	r2, [r3, #8]
 80008e0:	693b      	ldr	r3, [r7, #16]
 80008e2:	6a1b      	ldr	r3, [r3, #32]
 80008e4:	693a      	ldr	r2, [r7, #16]
 80008e6:	69d2      	ldr	r2, [r2, #28]
 80008e8:	605a      	str	r2, [r3, #4]
 80008ea:	687b      	ldr	r3, [r7, #4]
 80008ec:	685a      	ldr	r2, [r3, #4]
 80008ee:	693b      	ldr	r3, [r7, #16]
 80008f0:	3318      	adds	r3, #24
 80008f2:	429a      	cmp	r2, r3
 80008f4:	d103      	bne.n	80008fe <xTaskIncrementTick+0xfe>
 80008f6:	693b      	ldr	r3, [r7, #16]
 80008f8:	6a1a      	ldr	r2, [r3, #32]
 80008fa:	687b      	ldr	r3, [r7, #4]
 80008fc:	605a      	str	r2, [r3, #4]
 80008fe:	693b      	ldr	r3, [r7, #16]
 8000900:	2200      	movs	r2, #0
 8000902:	629a      	str	r2, [r3, #40]	@ 0x28
 8000904:	687b      	ldr	r3, [r7, #4]
 8000906:	681b      	ldr	r3, [r3, #0]
 8000908:	1e5a      	subs	r2, r3, #1
 800090a:	687b      	ldr	r3, [r7, #4]
 800090c:	601a      	str	r2, [r3, #0]
                        mtCOVERAGE_TEST_MARKER();
                    }

                    /* Place the unblocked task into the appropriate ready
                     * list. */
                    prvAddTaskToReadyList( pxTCB );
 800090e:	693b      	ldr	r3, [r7, #16]
 8000910:	6ada      	ldr	r2, [r3, #44]	@ 0x2c
 8000912:	4b39      	ldr	r3, [pc, #228]	@ (80009f8 <xTaskIncrementTick+0x1f8>)
 8000914:	681b      	ldr	r3, [r3, #0]
 8000916:	429a      	cmp	r2, r3
 8000918:	d903      	bls.n	8000922 <xTaskIncrementTick+0x122>
 800091a:	693b      	ldr	r3, [r7, #16]
 800091c:	6ada      	ldr	r2, [r3, #44]	@ 0x2c
 800091e:	4b36      	ldr	r3, [pc, #216]	@ (80009f8 <xTaskIncrementTick+0x1f8>)
 8000920:	601a      	str	r2, [r3, #0]
 8000922:	693b      	ldr	r3, [r7, #16]
 8000924:	6ada      	ldr	r2, [r3, #44]	@ 0x2c
 8000926:	4935      	ldr	r1, [pc, #212]	@ (80009fc <xTaskIncrementTick+0x1fc>)
 8000928:	0013      	movs	r3, r2
 800092a:	009b      	lsls	r3, r3, #2
 800092c:	189b      	adds	r3, r3, r2
 800092e:	009b      	lsls	r3, r3, #2
 8000930:	18cb      	adds	r3, r1, r3
 8000932:	3304      	adds	r3, #4
 8000934:	681b      	ldr	r3, [r3, #0]
 8000936:	603b      	str	r3, [r7, #0]
 8000938:	693b      	ldr	r3, [r7, #16]
 800093a:	683a      	ldr	r2, [r7, #0]
 800093c:	609a      	str	r2, [r3, #8]
 800093e:	683b      	ldr	r3, [r7, #0]
 8000940:	689a      	ldr	r2, [r3, #8]
 8000942:	693b      	ldr	r3, [r7, #16]
 8000944:	60da      	str	r2, [r3, #12]
 8000946:	683b      	ldr	r3, [r7, #0]
 8000948:	689b      	ldr	r3, [r3, #8]
 800094a:	693a      	ldr	r2, [r7, #16]
 800094c:	3204      	adds	r2, #4
 800094e:	605a      	str	r2, [r3, #4]
 8000950:	693b      	ldr	r3, [r7, #16]
 8000952:	1d1a      	adds	r2, r3, #4
 8000954:	683b      	ldr	r3, [r7, #0]
 8000956:	609a      	str	r2, [r3, #8]
 8000958:	693b      	ldr	r3, [r7, #16]
 800095a:	6ada      	ldr	r2, [r3, #44]	@ 0x2c
 800095c:	0013      	movs	r3, r2
 800095e:	009b      	lsls	r3, r3, #2
 8000960:	189b      	adds	r3, r3, r2
 8000962:	009b      	lsls	r3, r3, #2
 8000964:	4a25      	ldr	r2, [pc, #148]	@ (80009fc <xTaskIncrementTick+0x1fc>)
 8000966:	189a      	adds	r2, r3, r2
 8000968:	693b      	ldr	r3, [r7, #16]
 800096a:	615a      	str	r2, [r3, #20]
 800096c:	693b      	ldr	r3, [r7, #16]
 800096e:	6ada      	ldr	r2, [r3, #44]	@ 0x2c
 8000970:	4922      	ldr	r1, [pc, #136]	@ (80009fc <xTaskIncrementTick+0x1fc>)
 8000972:	0013      	movs	r3, r2
 8000974:	009b      	lsls	r3, r3, #2
 8000976:	189b      	adds	r3, r3, r2
 8000978:	009b      	lsls	r3, r3, #2
 800097a:	5859      	ldr	r1, [r3, r1]
 800097c:	693b      	ldr	r3, [r7, #16]
 800097e:	6ada      	ldr	r2, [r3, #44]	@ 0x2c
 8000980:	1c48      	adds	r0, r1, #1
 8000982:	491e      	ldr	r1, [pc, #120]	@ (80009fc <xTaskIncrementTick+0x1fc>)
 8000984:	0013      	movs	r3, r2
 8000986:	009b      	lsls	r3, r3, #2
 8000988:	189b      	adds	r3, r3, r2
 800098a:	009b      	lsls	r3, r3, #2
 800098c:	5058      	str	r0, [r3, r1]
                             * task.
                             * The case of equal priority tasks sharing
                             * processing time (which happens when both
                             * preemption and time slicing are on) is
                             * handled below.*/
                            if( pxTCB->uxPriority > pxCurrentTCB->uxPriority )
 800098e:	693b      	ldr	r3, [r7, #16]
 8000990:	6ada      	ldr	r2, [r3, #44]	@ 0x2c
 8000992:	4b1b      	ldr	r3, [pc, #108]	@ (8000a00 <xTaskIncrementTick+0x200>)
 8000994:	681b      	ldr	r3, [r3, #0]
 8000996:	6adb      	ldr	r3, [r3, #44]	@ 0x2c
 8000998:	429a      	cmp	r2, r3
 800099a:	d800      	bhi.n	800099e <xTaskIncrementTick+0x19e>
 800099c:	e75b      	b.n	8000856 <xTaskIncrementTick+0x56>
                            {
                                xSwitchRequired = pdTRUE;
 800099e:	2301      	movs	r3, #1
 80009a0:	61fb      	str	r3, [r7, #28]
                if( listLIST_IS_EMPTY( pxDelayedTaskList ) != pdFALSE )
 80009a2:	e758      	b.n	8000856 <xTaskIncrementTick+0x56>
         * writer has not explicitly turned time slicing off. */
        #if ( ( configUSE_PREEMPTION == 1 ) && ( configUSE_TIME_SLICING == 1 ) )
        {
            #if ( configNUMBER_OF_CORES == 1 )
            {
                if( listCURRENT_LIST_LENGTH( &( pxReadyTasksLists[ pxCurrentTCB->uxPriority ] ) ) > 1U )
 80009a4:	4b16      	ldr	r3, [pc, #88]	@ (8000a00 <xTaskIncrementTick+0x200>)
 80009a6:	681b      	ldr	r3, [r3, #0]
 80009a8:	6ada      	ldr	r2, [r3, #44]	@ 0x2c
 80009aa:	4914      	ldr	r1, [pc, #80]	@ (80009fc <xTaskIncrementTick+0x1fc>)
 80009ac:	0013      	movs	r3, r2
 80009ae:	009b      	lsls	r3, r3, #2
 80009b0:	189b      	adds	r3, r3, r2
 80009b2:	009b      	lsls	r3, r3, #2
 80009b4:	585b      	ldr	r3, [r3, r1]
 80009b6:	2b01      	cmp	r3, #1
 80009b8:	d901      	bls.n	80009be <xTaskIncrementTick+0x1be>
                {
                    xSwitchRequired = pdTRUE;
 80009ba:	2301      	movs	r3, #1
 80009bc:	61fb      	str	r3, [r7, #28]
        #if ( configUSE_PREEMPTION == 1 )
        {
            #if ( configNUMBER_OF_CORES == 1 )
            {
                /* For single core the core ID is always 0. */
                if( xYieldPendings[ 0 ] != pdFALSE )
 80009be:	4b11      	ldr	r3, [pc, #68]	@ (8000a04 <xTaskIncrementTick+0x204>)
 80009c0:	681b      	ldr	r3, [r3, #0]
 80009c2:	2b00      	cmp	r3, #0
 80009c4:	d007      	beq.n	80009d6 <xTaskIncrementTick+0x1d6>
                {
                    xSwitchRequired = pdTRUE;
 80009c6:	2301      	movs	r3, #1
 80009c8:	61fb      	str	r3, [r7, #28]
 80009ca:	e004      	b.n	80009d6 <xTaskIncrementTick+0x1d6>
        }
        #endif /* #if ( configUSE_PREEMPTION == 1 ) */
    }
    else
    {
        xPendedTicks += 1U;
 80009cc:	4b0e      	ldr	r3, [pc, #56]	@ (8000a08 <xTaskIncrementTick+0x208>)
 80009ce:	681b      	ldr	r3, [r3, #0]
 80009d0:	1c5a      	adds	r2, r3, #1
 80009d2:	4b0d      	ldr	r3, [pc, #52]	@ (8000a08 <xTaskIncrementTick+0x208>)
 80009d4:	601a      	str	r2, [r3, #0]
        #endif
    }

    traceRETURN_xTaskIncrementTick( xSwitchRequired );

    return xSwitchRequired;
 80009d6:	69fb      	ldr	r3, [r7, #28]
}
 80009d8:	0018      	movs	r0, r3
 80009da:	46bd      	mov	sp, r7
 80009dc:	b008      	add	sp, #32
 80009de:	bd80      	pop	{r7, pc}
 80009e0:	20000120 	.word	0x20000120
 80009e4:	200000fc 	.word	0x200000fc
 80009e8:	200000b0 	.word	0x200000b0
 80009ec:	200000b4 	.word	0x200000b4
 80009f0:	20000110 	.word	0x20000110
 80009f4:	20000118 	.word	0x20000118
 80009f8:	20000100 	.word	0x20000100
 80009fc:	20000024 	.word	0x20000024
 8000a00:	20000020 	.word	0x20000020
 8000a04:	2000010c 	.word	0x2000010c
 8000a08:	20000108 	.word	0x20000108

08000a0c <vTaskSwitchContext>:
#endif /* configUSE_APPLICATION_TASK_TAG */
/*-----------------------------------------------------------*/

#if ( configNUMBER_OF_CORES == 1 )
    void vTaskSwitchContext( void )
    {
 8000a0c:	b580      	push	{r7, lr}
 8000a0e:	b082      	sub	sp, #8
 8000a10:	af00      	add	r7, sp, #0
        traceENTER_vTaskSwitchContext();

        if( uxSchedulerSuspended != ( UBaseType_t ) 0U )
 8000a12:	4b20      	ldr	r3, [pc, #128]	@ (8000a94 <vTaskSwitchContext+0x88>)
 8000a14:	681b      	ldr	r3, [r3, #0]
 8000a16:	2b00      	cmp	r3, #0
 8000a18:	d003      	beq.n	8000a22 <vTaskSwitchContext+0x16>
        {
            /* The scheduler is currently suspended - do not allow a context
             * switch. */
            xYieldPendings[ 0 ] = pdTRUE;
 8000a1a:	4b1f      	ldr	r3, [pc, #124]	@ (8000a98 <vTaskSwitchContext+0x8c>)
 8000a1c:	2201      	movs	r2, #1
 8000a1e:	601a      	str	r2, [r3, #0]
            }
            #endif
        }

        traceRETURN_vTaskSwitchContext();
    }
 8000a20:	e033      	b.n	8000a8a <vTaskSwitchContext+0x7e>
            xYieldPendings[ 0 ] = pdFALSE;
 8000a22:	4b1d      	ldr	r3, [pc, #116]	@ (8000a98 <vTaskSwitchContext+0x8c>)
 8000a24:	2200      	movs	r2, #0
 8000a26:	601a      	str	r2, [r3, #0]
            taskSELECT_HIGHEST_PRIORITY_TASK();
 8000a28:	4b1c      	ldr	r3, [pc, #112]	@ (8000a9c <vTaskSwitchContext+0x90>)
 8000a2a:	681b      	ldr	r3, [r3, #0]
 8000a2c:	607b      	str	r3, [r7, #4]
 8000a2e:	e002      	b.n	8000a36 <vTaskSwitchContext+0x2a>
 8000a30:	687b      	ldr	r3, [r7, #4]
 8000a32:	3b01      	subs	r3, #1
 8000a34:	607b      	str	r3, [r7, #4]
 8000a36:	491a      	ldr	r1, [pc, #104]	@ (8000aa0 <vTaskSwitchContext+0x94>)
 8000a38:	687a      	ldr	r2, [r7, #4]
 8000a3a:	0013      	movs	r3, r2
 8000a3c:	009b      	lsls	r3, r3, #2
 8000a3e:	189b      	adds	r3, r3, r2
 8000a40:	009b      	lsls	r3, r3, #2
 8000a42:	585b      	ldr	r3, [r3, r1]
 8000a44:	2b00      	cmp	r3, #0
 8000a46:	d0f3      	beq.n	8000a30 <vTaskSwitchContext+0x24>
 8000a48:	687a      	ldr	r2, [r7, #4]
 8000a4a:	0013      	movs	r3, r2
 8000a4c:	009b      	lsls	r3, r3, #2
 8000a4e:	189b      	adds	r3, r3, r2
 8000a50:	009b      	lsls	r3, r3, #2
 8000a52:	4a13      	ldr	r2, [pc, #76]	@ (8000aa0 <vTaskSwitchContext+0x94>)
 8000a54:	189b      	adds	r3, r3, r2
 8000a56:	603b      	str	r3, [r7, #0]
 8000a58:	683b      	ldr	r3, [r7, #0]
 8000a5a:	685b      	ldr	r3, [r3, #4]
 8000a5c:	685a      	ldr	r2, [r3, #4]
 8000a5e:	683b      	ldr	r3, [r7, #0]
 8000a60:	605a      	str	r2, [r3, #4]
 8000a62:	683b      	ldr	r3, [r7, #0]
 8000a64:	685a      	ldr	r2, [r3, #4]
 8000a66:	683b      	ldr	r3, [r7, #0]
 8000a68:	3308      	adds	r3, #8
 8000a6a:	429a      	cmp	r2, r3
 8000a6c:	d103      	bne.n	8000a76 <vTaskSwitchContext+0x6a>
 8000a6e:	683b      	ldr	r3, [r7, #0]
 8000a70:	68da      	ldr	r2, [r3, #12]
 8000a72:	683b      	ldr	r3, [r7, #0]
 8000a74:	605a      	str	r2, [r3, #4]
 8000a76:	683b      	ldr	r3, [r7, #0]
 8000a78:	685b      	ldr	r3, [r3, #4]
 8000a7a:	68da      	ldr	r2, [r3, #12]
 8000a7c:	4b09      	ldr	r3, [pc, #36]	@ (8000aa4 <vTaskSwitchContext+0x98>)
 8000a7e:	601a      	str	r2, [r3, #0]
 8000a80:	4b06      	ldr	r3, [pc, #24]	@ (8000a9c <vTaskSwitchContext+0x90>)
 8000a82:	687a      	ldr	r2, [r7, #4]
 8000a84:	601a      	str	r2, [r3, #0]
            portTASK_SWITCH_HOOK( pxCurrentTCB );
 8000a86:	4b07      	ldr	r3, [pc, #28]	@ (8000aa4 <vTaskSwitchContext+0x98>)
 8000a88:	681b      	ldr	r3, [r3, #0]
    }
 8000a8a:	46c0      	nop			@ (mov r8, r8)
 8000a8c:	46bd      	mov	sp, r7
 8000a8e:	b002      	add	sp, #8
 8000a90:	bd80      	pop	{r7, pc}
 8000a92:	46c0      	nop			@ (mov r8, r8)
 8000a94:	20000120 	.word	0x20000120
 8000a98:	2000010c 	.word	0x2000010c
 8000a9c:	20000100 	.word	0x20000100
 8000aa0:	20000024 	.word	0x20000024
 8000aa4:	20000020 	.word	0x20000020

08000aa8 <prvIdleTask>:
 *
 */

STATIC portTASK_FUNCTION( prvIdleTask,
                          pvParameters )
{
 8000aa8:	b580      	push	{r7, lr}
 8000aaa:	b082      	sub	sp, #8
 8000aac:	af00      	add	r7, sp, #0
 8000aae:	6078      	str	r0, [r7, #4]

    for( ; configCONTROL_INFINITE_LOOP(); )
    {
        /* See if any tasks have deleted themselves - if so then the idle task
         * is responsible for freeing the deleted task's TCB and stack. */
        prvCheckTasksWaitingTermination();
 8000ab0:	f000 f84e 	bl	8000b50 <prvCheckTasksWaitingTermination>
             * A critical region is not required here as we are just reading from
             * the list, and an occasional incorrect value will not matter.  If
             * the ready list at the idle priority contains one more task than the
             * number of idle tasks, which is equal to the configured numbers of cores
             * then a task other than the idle task is ready to execute. */
            if( listCURRENT_LIST_LENGTH( &( pxReadyTasksLists[ tskIDLE_PRIORITY ] ) ) > ( UBaseType_t ) configNUMBER_OF_CORES )
 8000ab4:	4b03      	ldr	r3, [pc, #12]	@ (8000ac4 <prvIdleTask+0x1c>)
 8000ab6:	681b      	ldr	r3, [r3, #0]
 8000ab8:	2b01      	cmp	r3, #1
 8000aba:	d9f9      	bls.n	8000ab0 <prvIdleTask+0x8>
            {
                taskYIELD();
 8000abc:	f000 f93e 	bl	8000d3c <vPortYield>
        prvCheckTasksWaitingTermination();
 8000ac0:	e7f6      	b.n	8000ab0 <prvIdleTask+0x8>
 8000ac2:	46c0      	nop			@ (mov r8, r8)
 8000ac4:	20000024 	.word	0x20000024

08000ac8 <prvInitialiseTaskLists>:

#endif /* portUSING_MPU_WRAPPERS */
/*-----------------------------------------------------------*/

STATIC void prvInitialiseTaskLists( void )
{
 8000ac8:	b580      	push	{r7, lr}
 8000aca:	b082      	sub	sp, #8
 8000acc:	af00      	add	r7, sp, #0
    UBaseType_t uxPriority;

    for( uxPriority = ( UBaseType_t ) 0U; uxPriority < ( UBaseType_t ) configMAX_PRIORITIES; uxPriority++ )
 8000ace:	2300      	movs	r3, #0
 8000ad0:	607b      	str	r3, [r7, #4]
 8000ad2:	e00c      	b.n	8000aee <prvInitialiseTaskLists+0x26>
    {
        vListInitialise( &( pxReadyTasksLists[ uxPriority ] ) );
 8000ad4:	687a      	ldr	r2, [r7, #4]
 8000ad6:	0013      	movs	r3, r2
 8000ad8:	009b      	lsls	r3, r3, #2
 8000ada:	189b      	adds	r3, r3, r2
 8000adc:	009b      	lsls	r3, r3, #2
 8000ade:	4a14      	ldr	r2, [pc, #80]	@ (8000b30 <prvInitialiseTaskLists+0x68>)
 8000ae0:	189b      	adds	r3, r3, r2
 8000ae2:	0018      	movs	r0, r3
 8000ae4:	f7ff fb10 	bl	8000108 <vListInitialise>
    for( uxPriority = ( UBaseType_t ) 0U; uxPriority < ( UBaseType_t ) configMAX_PRIORITIES; uxPriority++ )
 8000ae8:	687b      	ldr	r3, [r7, #4]
 8000aea:	3301      	adds	r3, #1
 8000aec:	607b      	str	r3, [r7, #4]
 8000aee:	687b      	ldr	r3, [r7, #4]
 8000af0:	2b04      	cmp	r3, #4
 8000af2:	d9ef      	bls.n	8000ad4 <prvInitialiseTaskLists+0xc>
    }

    vListInitialise( &xDelayedTaskList1 );
 8000af4:	4b0f      	ldr	r3, [pc, #60]	@ (8000b34 <prvInitialiseTaskLists+0x6c>)
 8000af6:	0018      	movs	r0, r3
 8000af8:	f7ff fb06 	bl	8000108 <vListInitialise>
    vListInitialise( &xDelayedTaskList2 );
 8000afc:	4b0e      	ldr	r3, [pc, #56]	@ (8000b38 <prvInitialiseTaskLists+0x70>)
 8000afe:	0018      	movs	r0, r3
 8000b00:	f7ff fb02 	bl	8000108 <vListInitialise>
    vListInitialise( &xPendingReadyList );
 8000b04:	4b0d      	ldr	r3, [pc, #52]	@ (8000b3c <prvInitialiseTaskLists+0x74>)
 8000b06:	0018      	movs	r0, r3
 8000b08:	f7ff fafe 	bl	8000108 <vListInitialise>

    #if ( INCLUDE_vTaskDelete == 1 )
    {
        vListInitialise( &xTasksWaitingTermination );
 8000b0c:	4b0c      	ldr	r3, [pc, #48]	@ (8000b40 <prvInitialiseTaskLists+0x78>)
 8000b0e:	0018      	movs	r0, r3
 8000b10:	f7ff fafa 	bl	8000108 <vListInitialise>
    }
    #endif /* INCLUDE_vTaskDelete */

    #if ( INCLUDE_vTaskSuspend == 1 )
    {
        vListInitialise( &xSuspendedTaskList );
 8000b14:	4b0b      	ldr	r3, [pc, #44]	@ (8000b44 <prvInitialiseTaskLists+0x7c>)
 8000b16:	0018      	movs	r0, r3
 8000b18:	f7ff faf6 	bl	8000108 <vListInitialise>
    }
    #endif /* INCLUDE_vTaskSuspend */

    /* Start with pxDelayedTaskList using list1 and the pxOverflowDelayedTaskList
     * using list2. */
    pxDelayedTaskList = &xDelayedTaskList1;
 8000b1c:	4b0a      	ldr	r3, [pc, #40]	@ (8000b48 <prvInitialiseTaskLists+0x80>)
 8000b1e:	4a05      	ldr	r2, [pc, #20]	@ (8000b34 <prvInitialiseTaskLists+0x6c>)
 8000b20:	601a      	str	r2, [r3, #0]
    pxOverflowDelayedTaskList = &xDelayedTaskList2;
 8000b22:	4b0a      	ldr	r3, [pc, #40]	@ (8000b4c <prvInitialiseTaskLists+0x84>)
 8000b24:	4a04      	ldr	r2, [pc, #16]	@ (8000b38 <prvInitialiseTaskLists+0x70>)
 8000b26:	601a      	str	r2, [r3, #0]
}
 8000b28:	46c0      	nop			@ (mov r8, r8)
 8000b2a:	46bd      	mov	sp, r7
 8000b2c:	b002      	add	sp, #8
 8000b2e:	bd80      	pop	{r7, pc}
 8000b30:	20000024 	.word	0x20000024
 8000b34:	20000088 	.word	0x20000088
 8000b38:	2000009c 	.word	0x2000009c
 8000b3c:	200000b8 	.word	0x200000b8
 8000b40:	200000cc 	.word	0x200000cc
 8000b44:	200000e4 	.word	0x200000e4
 8000b48:	200000b0 	.word	0x200000b0
 8000b4c:	200000b4 	.word	0x200000b4

08000b50 <prvCheckTasksWaitingTermination>:
/*-----------------------------------------------------------*/

STATIC void prvCheckTasksWaitingTermination( void )
{
 8000b50:	b580      	push	{r7, lr}
 8000b52:	b082      	sub	sp, #8
 8000b54:	af00      	add	r7, sp, #0
    {
        TCB_t * pxTCB;

        /* uxDeletedTasksWaitingCleanUp is used to prevent taskENTER_CRITICAL()
         * being called too often in the idle task. */
        while( uxDeletedTasksWaitingCleanUp > ( UBaseType_t ) 0U )
 8000b56:	e01a      	b.n	8000b8e <prvCheckTasksWaitingTermination+0x3e>
        {
            #if ( configNUMBER_OF_CORES == 1 )
            {
                taskENTER_CRITICAL();
 8000b58:	f000 f900 	bl	8000d5c <vPortEnterCritical>
                {
                    {
                        /* MISRA Ref 11.5.3 [Void pointer assignment] */
                        /* More details at: https://github.com/FreeRTOS/FreeRTOS-Kernel/blob/main/MISRA.md#rule-115 */
                        /* coverity[misra_c_2012_rule_11_5_violation] */
                        pxTCB = listGET_OWNER_OF_HEAD_ENTRY( ( &xTasksWaitingTermination ) );
 8000b5c:	4b10      	ldr	r3, [pc, #64]	@ (8000ba0 <prvCheckTasksWaitingTermination+0x50>)
 8000b5e:	68db      	ldr	r3, [r3, #12]
 8000b60:	68db      	ldr	r3, [r3, #12]
 8000b62:	607b      	str	r3, [r7, #4]
                        ( void ) uxListRemove( &( pxTCB->xStateListItem ) );
 8000b64:	687b      	ldr	r3, [r7, #4]
 8000b66:	3304      	adds	r3, #4
 8000b68:	0018      	movs	r0, r3
 8000b6a:	f7ff fb2c 	bl	80001c6 <uxListRemove>
                        --uxCurrentNumberOfTasks;
 8000b6e:	4b0d      	ldr	r3, [pc, #52]	@ (8000ba4 <prvCheckTasksWaitingTermination+0x54>)
 8000b70:	681b      	ldr	r3, [r3, #0]
 8000b72:	1e5a      	subs	r2, r3, #1
 8000b74:	4b0b      	ldr	r3, [pc, #44]	@ (8000ba4 <prvCheckTasksWaitingTermination+0x54>)
 8000b76:	601a      	str	r2, [r3, #0]
                        --uxDeletedTasksWaitingCleanUp;
 8000b78:	4b0b      	ldr	r3, [pc, #44]	@ (8000ba8 <prvCheckTasksWaitingTermination+0x58>)
 8000b7a:	681b      	ldr	r3, [r3, #0]
 8000b7c:	1e5a      	subs	r2, r3, #1
 8000b7e:	4b0a      	ldr	r3, [pc, #40]	@ (8000ba8 <prvCheckTasksWaitingTermination+0x58>)
 8000b80:	601a      	str	r2, [r3, #0]
                    }
                }
                taskEXIT_CRITICAL();
 8000b82:	f000 f8fd 	bl	8000d80 <vPortExitCritical>

                prvDeleteTCB( pxTCB );
 8000b86:	687b      	ldr	r3, [r7, #4]
 8000b88:	0018      	movs	r0, r3
 8000b8a:	f000 f80f 	bl	8000bac <prvDeleteTCB>
        while( uxDeletedTasksWaitingCleanUp > ( UBaseType_t ) 0U )
 8000b8e:	4b06      	ldr	r3, [pc, #24]	@ (8000ba8 <prvCheckTasksWaitingTermination+0x58>)
 8000b90:	681b      	ldr	r3, [r3, #0]
 8000b92:	2b00      	cmp	r3, #0
 8000b94:	d1e0      	bne.n	8000b58 <prvCheckTasksWaitingTermination+0x8>
            }
            #endif /* #if( configNUMBER_OF_CORES == 1 ) */
        }
    }
    #endif /* INCLUDE_vTaskDelete */
}
 8000b96:	46c0      	nop			@ (mov r8, r8)
 8000b98:	46c0      	nop			@ (mov r8, r8)
 8000b9a:	46bd      	mov	sp, r7
 8000b9c:	b002      	add	sp, #8
 8000b9e:	bd80      	pop	{r7, pc}
 8000ba0:	200000cc 	.word	0x200000cc
 8000ba4:	200000f8 	.word	0x200000f8
 8000ba8:	200000e0 	.word	0x200000e0

08000bac <prvDeleteTCB>:
/*-----------------------------------------------------------*/

#if ( INCLUDE_vTaskDelete == 1 )

    STATIC void prvDeleteTCB( TCB_t * pxTCB )
    {
 8000bac:	b580      	push	{r7, lr}
 8000bae:	b082      	sub	sp, #8
 8000bb0:	af00      	add	r7, sp, #0
 8000bb2:	6078      	str	r0, [r7, #4]

        #if ( ( configSUPPORT_DYNAMIC_ALLOCATION == 1 ) && ( configSUPPORT_STATIC_ALLOCATION == 0 ) && ( portUSING_MPU_WRAPPERS == 0 ) )
        {
            /* The task can only have been allocated dynamically - free both
             * the stack and TCB. */
            vPortFreeStack( pxTCB->pxStack );
 8000bb4:	687b      	ldr	r3, [r7, #4]
 8000bb6:	6b1b      	ldr	r3, [r3, #48]	@ 0x30
 8000bb8:	0018      	movs	r0, r3
 8000bba:	f000 fb07 	bl	80011cc <vPortFree>
            vPortFree( pxTCB );
 8000bbe:	687b      	ldr	r3, [r7, #4]
 8000bc0:	0018      	movs	r0, r3
 8000bc2:	f000 fb03 	bl	80011cc <vPortFree>
                configASSERT( pxTCB->ucStaticallyAllocated == tskSTATICALLY_ALLOCATED_STACK_AND_TCB );
                mtCOVERAGE_TEST_MARKER();
            }
        }
        #endif /* configSUPPORT_DYNAMIC_ALLOCATION */
    }
 8000bc6:	46c0      	nop			@ (mov r8, r8)
 8000bc8:	46bd      	mov	sp, r7
 8000bca:	b002      	add	sp, #8
 8000bcc:	bd80      	pop	{r7, pc}
	...

08000bd0 <prvResetNextTaskUnblockTime>:

#endif /* INCLUDE_vTaskDelete */
/*-----------------------------------------------------------*/

STATIC void prvResetNextTaskUnblockTime( void )
{
 8000bd0:	b580      	push	{r7, lr}
 8000bd2:	af00      	add	r7, sp, #0
    if( listLIST_IS_EMPTY( pxDelayedTaskList ) != pdFALSE )
 8000bd4:	4b09      	ldr	r3, [pc, #36]	@ (8000bfc <prvResetNextTaskUnblockTime+0x2c>)
 8000bd6:	681b      	ldr	r3, [r3, #0]
 8000bd8:	681b      	ldr	r3, [r3, #0]
 8000bda:	2b00      	cmp	r3, #0
 8000bdc:	d104      	bne.n	8000be8 <prvResetNextTaskUnblockTime+0x18>
    {
        /* The new current delayed list is empty.  Set xNextTaskUnblockTime to
         * the maximum possible value so it is  extremely unlikely that the
         * if( xTickCount >= xNextTaskUnblockTime ) test will pass until
         * there is an item in the delayed list. */
        xNextTaskUnblockTime = portMAX_DELAY;
 8000bde:	4b08      	ldr	r3, [pc, #32]	@ (8000c00 <prvResetNextTaskUnblockTime+0x30>)
 8000be0:	2201      	movs	r2, #1
 8000be2:	4252      	negs	r2, r2
 8000be4:	601a      	str	r2, [r3, #0]
         * the item at the head of the delayed list.  This is the time at
         * which the task at the head of the delayed list should be removed
         * from the Blocked state. */
        xNextTaskUnblockTime = listGET_ITEM_VALUE_OF_HEAD_ENTRY( pxDelayedTaskList );
    }
}
 8000be6:	e005      	b.n	8000bf4 <prvResetNextTaskUnblockTime+0x24>
        xNextTaskUnblockTime = listGET_ITEM_VALUE_OF_HEAD_ENTRY( pxDelayedTaskList );
 8000be8:	4b04      	ldr	r3, [pc, #16]	@ (8000bfc <prvResetNextTaskUnblockTime+0x2c>)
 8000bea:	681b      	ldr	r3, [r3, #0]
 8000bec:	68db      	ldr	r3, [r3, #12]
 8000bee:	681a      	ldr	r2, [r3, #0]
 8000bf0:	4b03      	ldr	r3, [pc, #12]	@ (8000c00 <prvResetNextTaskUnblockTime+0x30>)
 8000bf2:	601a      	str	r2, [r3, #0]
}
 8000bf4:	46c0      	nop			@ (mov r8, r8)
 8000bf6:	46bd      	mov	sp, r7
 8000bf8:	bd80      	pop	{r7, pc}
 8000bfa:	46c0      	nop			@ (mov r8, r8)
 8000bfc:	200000b0 	.word	0x200000b0
 8000c00:	20000118 	.word	0x20000118

08000c04 <prvAddCurrentTaskToDelayedList>:
#endif /* if ( ( configGENERATE_RUN_TIME_STATS == 1 ) && ( INCLUDE_xTaskGetIdleTaskHandle == 1 ) ) */
/*-----------------------------------------------------------*/

STATIC void prvAddCurrentTaskToDelayedList( TickType_t xTicksToWait,
                                            const BaseType_t xCanBlockIndefinitely )
{
 8000c04:	b580      	push	{r7, lr}
 8000c06:	b088      	sub	sp, #32
 8000c08:	af00      	add	r7, sp, #0
 8000c0a:	6078      	str	r0, [r7, #4]
 8000c0c:	6039      	str	r1, [r7, #0]
    TickType_t xTimeToWake;
    const TickType_t xConstTickCount = xTickCount;
 8000c0e:	4b30      	ldr	r3, [pc, #192]	@ (8000cd0 <prvAddCurrentTaskToDelayedList+0xcc>)
 8000c10:	681b      	ldr	r3, [r3, #0]
 8000c12:	61fb      	str	r3, [r7, #28]
    List_t * const pxDelayedList = pxDelayedTaskList;
 8000c14:	4b2f      	ldr	r3, [pc, #188]	@ (8000cd4 <prvAddCurrentTaskToDelayedList+0xd0>)
 8000c16:	681b      	ldr	r3, [r3, #0]
 8000c18:	61bb      	str	r3, [r7, #24]
    List_t * const pxOverflowDelayedList = pxOverflowDelayedTaskList;
 8000c1a:	4b2f      	ldr	r3, [pc, #188]	@ (8000cd8 <prvAddCurrentTaskToDelayedList+0xd4>)
 8000c1c:	681b      	ldr	r3, [r3, #0]
 8000c1e:	617b      	str	r3, [r7, #20]
    }
    #endif

    /* Remove the task from the ready list before adding it to the blocked list
     * as the same list item is used for both lists. */
    if( uxListRemove( &( pxCurrentTCB->xStateListItem ) ) == ( UBaseType_t ) 0 )
 8000c20:	4b2e      	ldr	r3, [pc, #184]	@ (8000cdc <prvAddCurrentTaskToDelayedList+0xd8>)
 8000c22:	681b      	ldr	r3, [r3, #0]
 8000c24:	3304      	adds	r3, #4
 8000c26:	0018      	movs	r0, r3
 8000c28:	f7ff facd 	bl	80001c6 <uxListRemove>
        mtCOVERAGE_TEST_MARKER();
    }

    #if ( INCLUDE_vTaskSuspend == 1 )
    {
        if( ( xTicksToWait == portMAX_DELAY ) && ( xCanBlockIndefinitely != pdFALSE ) )
 8000c2c:	687b      	ldr	r3, [r7, #4]
 8000c2e:	3301      	adds	r3, #1
 8000c30:	d124      	bne.n	8000c7c <prvAddCurrentTaskToDelayedList+0x78>
 8000c32:	683b      	ldr	r3, [r7, #0]
 8000c34:	2b00      	cmp	r3, #0
 8000c36:	d021      	beq.n	8000c7c <prvAddCurrentTaskToDelayedList+0x78>
        {
            /* Add the task to the suspended task list instead of a delayed task
             * list to ensure it is not woken by a timing event.  It will block
             * indefinitely. */
            listINSERT_END( &xSuspendedTaskList, &( pxCurrentTCB->xStateListItem ) );
 8000c38:	4b29      	ldr	r3, [pc, #164]	@ (8000ce0 <prvAddCurrentTaskToDelayedList+0xdc>)
 8000c3a:	685b      	ldr	r3, [r3, #4]
 8000c3c:	613b      	str	r3, [r7, #16]
 8000c3e:	4b27      	ldr	r3, [pc, #156]	@ (8000cdc <prvAddCurrentTaskToDelayedList+0xd8>)
 8000c40:	681b      	ldr	r3, [r3, #0]
 8000c42:	693a      	ldr	r2, [r7, #16]
 8000c44:	609a      	str	r2, [r3, #8]
 8000c46:	4b25      	ldr	r3, [pc, #148]	@ (8000cdc <prvAddCurrentTaskToDelayedList+0xd8>)
 8000c48:	681b      	ldr	r3, [r3, #0]
 8000c4a:	693a      	ldr	r2, [r7, #16]
 8000c4c:	6892      	ldr	r2, [r2, #8]
 8000c4e:	60da      	str	r2, [r3, #12]
 8000c50:	4b22      	ldr	r3, [pc, #136]	@ (8000cdc <prvAddCurrentTaskToDelayedList+0xd8>)
 8000c52:	681a      	ldr	r2, [r3, #0]
 8000c54:	693b      	ldr	r3, [r7, #16]
 8000c56:	689b      	ldr	r3, [r3, #8]
 8000c58:	3204      	adds	r2, #4
 8000c5a:	605a      	str	r2, [r3, #4]
 8000c5c:	4b1f      	ldr	r3, [pc, #124]	@ (8000cdc <prvAddCurrentTaskToDelayedList+0xd8>)
 8000c5e:	681b      	ldr	r3, [r3, #0]
 8000c60:	1d1a      	adds	r2, r3, #4
 8000c62:	693b      	ldr	r3, [r7, #16]
 8000c64:	609a      	str	r2, [r3, #8]
 8000c66:	4b1d      	ldr	r3, [pc, #116]	@ (8000cdc <prvAddCurrentTaskToDelayedList+0xd8>)
 8000c68:	681b      	ldr	r3, [r3, #0]
 8000c6a:	4a1d      	ldr	r2, [pc, #116]	@ (8000ce0 <prvAddCurrentTaskToDelayedList+0xdc>)
 8000c6c:	615a      	str	r2, [r3, #20]
 8000c6e:	4b1c      	ldr	r3, [pc, #112]	@ (8000ce0 <prvAddCurrentTaskToDelayedList+0xdc>)
 8000c70:	681b      	ldr	r3, [r3, #0]
 8000c72:	1c5a      	adds	r2, r3, #1
 8000c74:	4b1a      	ldr	r3, [pc, #104]	@ (8000ce0 <prvAddCurrentTaskToDelayedList+0xdc>)
 8000c76:	601a      	str	r2, [r3, #0]
 8000c78:	46c0      	nop			@ (mov r8, r8)

        /* Avoid compiler warning when INCLUDE_vTaskSuspend is not 1. */
        ( void ) xCanBlockIndefinitely;
    }
    #endif /* INCLUDE_vTaskSuspend */
}
 8000c7a:	e024      	b.n	8000cc6 <prvAddCurrentTaskToDelayedList+0xc2>
            xTimeToWake = xConstTickCount + xTicksToWait;
 8000c7c:	69fa      	ldr	r2, [r7, #28]
 8000c7e:	687b      	ldr	r3, [r7, #4]
 8000c80:	18d3      	adds	r3, r2, r3
 8000c82:	60fb      	str	r3, [r7, #12]
            listSET_LIST_ITEM_VALUE( &( pxCurrentTCB->xStateListItem ), xTimeToWake );
 8000c84:	4b15      	ldr	r3, [pc, #84]	@ (8000cdc <prvAddCurrentTaskToDelayedList+0xd8>)
 8000c86:	681b      	ldr	r3, [r3, #0]
 8000c88:	68fa      	ldr	r2, [r7, #12]
 8000c8a:	605a      	str	r2, [r3, #4]
            if( xTimeToWake < xConstTickCount )
 8000c8c:	68fa      	ldr	r2, [r7, #12]
 8000c8e:	69fb      	ldr	r3, [r7, #28]
 8000c90:	429a      	cmp	r2, r3
 8000c92:	d208      	bcs.n	8000ca6 <prvAddCurrentTaskToDelayedList+0xa2>
                vListInsert( pxOverflowDelayedList, &( pxCurrentTCB->xStateListItem ) );
 8000c94:	4b11      	ldr	r3, [pc, #68]	@ (8000cdc <prvAddCurrentTaskToDelayedList+0xd8>)
 8000c96:	681b      	ldr	r3, [r3, #0]
 8000c98:	1d1a      	adds	r2, r3, #4
 8000c9a:	697b      	ldr	r3, [r7, #20]
 8000c9c:	0011      	movs	r1, r2
 8000c9e:	0018      	movs	r0, r3
 8000ca0:	f7ff fa5b 	bl	800015a <vListInsert>
}
 8000ca4:	e00f      	b.n	8000cc6 <prvAddCurrentTaskToDelayedList+0xc2>
                vListInsert( pxDelayedList, &( pxCurrentTCB->xStateListItem ) );
 8000ca6:	4b0d      	ldr	r3, [pc, #52]	@ (8000cdc <prvAddCurrentTaskToDelayedList+0xd8>)
 8000ca8:	681b      	ldr	r3, [r3, #0]
 8000caa:	1d1a      	adds	r2, r3, #4
 8000cac:	69bb      	ldr	r3, [r7, #24]
 8000cae:	0011      	movs	r1, r2
 8000cb0:	0018      	movs	r0, r3
 8000cb2:	f7ff fa52 	bl	800015a <vListInsert>
                if( xTimeToWake < xNextTaskUnblockTime )
 8000cb6:	4b0b      	ldr	r3, [pc, #44]	@ (8000ce4 <prvAddCurrentTaskToDelayedList+0xe0>)
 8000cb8:	681b      	ldr	r3, [r3, #0]
 8000cba:	68fa      	ldr	r2, [r7, #12]
 8000cbc:	429a      	cmp	r2, r3
 8000cbe:	d202      	bcs.n	8000cc6 <prvAddCurrentTaskToDelayedList+0xc2>
                    xNextTaskUnblockTime = xTimeToWake;
 8000cc0:	4b08      	ldr	r3, [pc, #32]	@ (8000ce4 <prvAddCurrentTaskToDelayedList+0xe0>)
 8000cc2:	68fa      	ldr	r2, [r7, #12]
 8000cc4:	601a      	str	r2, [r3, #0]
}
 8000cc6:	46c0      	nop			@ (mov r8, r8)
 8000cc8:	46bd      	mov	sp, r7
 8000cca:	b008      	add	sp, #32
 8000ccc:	bd80      	pop	{r7, pc}
 8000cce:	46c0      	nop			@ (mov r8, r8)
 8000cd0:	200000fc 	.word	0x200000fc
 8000cd4:	200000b0 	.word	0x200000b0
 8000cd8:	200000b4 	.word	0x200000b4
 8000cdc:	20000020 	.word	0x20000020
 8000ce0:	200000e4 	.word	0x200000e4
 8000ce4:	20000118 	.word	0x20000118

08000ce8 <vPortSetupTimerInterrupt>:
#endif /* configUSE_TICKLESS_IDLE */

/*-----------------------------------------------------------*/

__attribute__( ( weak ) ) void vPortSetupTimerInterrupt( void ) /* PRIVILEGED_FUNCTION */
{
 8000ce8:	b580      	push	{r7, lr}
 8000cea:	af00      	add	r7, sp, #0
     * enable SysTick without first selecting a valid clock source. We trigger
     * the bug if we change clock sources from a clock with a zero clock period
     * to one with a nonzero clock period and enable Systick at the same time.
     * So we configure the CLKSOURCE bit here, prior to setting the ENABLE bit.
     * This workaround avoids the bug in QEMU versions older than 7.0.0. */
    portNVIC_SYSTICK_CTRL_REG = portNVIC_SYSTICK_CLK_BIT_CONFIG;
 8000cec:	4b07      	ldr	r3, [pc, #28]	@ (8000d0c <vPortSetupTimerInterrupt+0x24>)
 8000cee:	2204      	movs	r2, #4
 8000cf0:	601a      	str	r2, [r3, #0]
    portNVIC_SYSTICK_CURRENT_VALUE_REG = 0UL;
 8000cf2:	4b07      	ldr	r3, [pc, #28]	@ (8000d10 <vPortSetupTimerInterrupt+0x28>)
 8000cf4:	2200      	movs	r2, #0
 8000cf6:	601a      	str	r2, [r3, #0]

    /* Configure SysTick to interrupt at the requested rate. */
    portNVIC_SYSTICK_LOAD_REG = ( configSYSTICK_CLOCK_HZ / configTICK_RATE_HZ ) - 1UL;
 8000cf8:	4b06      	ldr	r3, [pc, #24]	@ (8000d14 <vPortSetupTimerInterrupt+0x2c>)
 8000cfa:	4a07      	ldr	r2, [pc, #28]	@ (8000d18 <vPortSetupTimerInterrupt+0x30>)
 8000cfc:	601a      	str	r2, [r3, #0]
    portNVIC_SYSTICK_CTRL_REG = portNVIC_SYSTICK_CLK_BIT_CONFIG | portNVIC_SYSTICK_INT_BIT | portNVIC_SYSTICK_ENABLE_BIT;
 8000cfe:	4b03      	ldr	r3, [pc, #12]	@ (8000d0c <vPortSetupTimerInterrupt+0x24>)
 8000d00:	2207      	movs	r2, #7
 8000d02:	601a      	str	r2, [r3, #0]
}
 8000d04:	46c0      	nop			@ (mov r8, r8)
 8000d06:	46bd      	mov	sp, r7
 8000d08:	bd80      	pop	{r7, pc}
 8000d0a:	46c0      	nop			@ (mov r8, r8)
 8000d0c:	e000e010 	.word	0xe000e010
 8000d10:	e000e018 	.word	0xe000e018
 8000d14:	e000e014 	.word	0xe000e014
 8000d18:	00002edf 	.word	0x00002edf

08000d1c <prvTaskExitError>:

/*-----------------------------------------------------------*/

static void prvTaskExitError( void )
{
 8000d1c:	b580      	push	{r7, lr}
 8000d1e:	b082      	sub	sp, #8
 8000d20:	af00      	add	r7, sp, #0
    volatile uint32_t ulDummy = 0UL;
 8000d22:	2300      	movs	r3, #0
 8000d24:	607b      	str	r3, [r7, #4]
     * its caller as there is nothing to return to. If a task wants to exit it
     * should instead call vTaskDelete( NULL ). Artificially force an assert()
     * to be triggered if configASSERT() is defined, then stop here so
     * application writers can catch the error. */
    configASSERT( ulCriticalNesting == ~0UL );
    portDISABLE_INTERRUPTS();
 8000d26:	b672      	cpsid	i

    while( ulDummy == 0 )
 8000d28:	46c0      	nop			@ (mov r8, r8)
 8000d2a:	687b      	ldr	r3, [r7, #4]
 8000d2c:	2b00      	cmp	r3, #0
 8000d2e:	d0fc      	beq.n	8000d2a <prvTaskExitError+0xe>
         * warnings about code appearing after this function is called - making
         * ulDummy volatile makes the compiler think the function could return
         * and therefore not output an 'unreachable code' warning for code that
         * appears after it. */
    }
}
 8000d30:	46c0      	nop			@ (mov r8, r8)
 8000d32:	46c0      	nop			@ (mov r8, r8)
 8000d34:	46bd      	mov	sp, r7
 8000d36:	b002      	add	sp, #8
 8000d38:	bd80      	pop	{r7, pc}
	...

08000d3c <vPortYield>:
#endif /* configENABLE_MPU */

/*-----------------------------------------------------------*/

void vPortYield( void ) /* PRIVILEGED_FUNCTION */
{
 8000d3c:	b580      	push	{r7, lr}
 8000d3e:	af00      	add	r7, sp, #0
    /* Set a PendSV to request a context switch. */
    portNVIC_INT_CTRL_REG = portNVIC_PENDSVSET_BIT;
 8000d40:	4b05      	ldr	r3, [pc, #20]	@ (8000d58 <vPortYield+0x1c>)
 8000d42:	2280      	movs	r2, #128	@ 0x80
 8000d44:	0552      	lsls	r2, r2, #21
 8000d46:	601a      	str	r2, [r3, #0]

    /* Barriers are normally not required but do ensure the code is
     * completely within the specified behaviour for the architecture. */
    __asm volatile ( "dsb" ::: "memory" );
 8000d48:	f3bf 8f4f 	dsb	sy
    __asm volatile ( "isb" );
 8000d4c:	f3bf 8f6f 	isb	sy
}
 8000d50:	46c0      	nop			@ (mov r8, r8)
 8000d52:	46bd      	mov	sp, r7
 8000d54:	bd80      	pop	{r7, pc}
 8000d56:	46c0      	nop			@ (mov r8, r8)
 8000d58:	e000ed04 	.word	0xe000ed04

08000d5c <vPortEnterCritical>:

/*-----------------------------------------------------------*/

void vPortEnterCritical( void ) /* PRIVILEGED_FUNCTION */
{
 8000d5c:	b580      	push	{r7, lr}
 8000d5e:	af00      	add	r7, sp, #0
    portDISABLE_INTERRUPTS();
 8000d60:	b672      	cpsid	i
    ulCriticalNesting++;
 8000d62:	4b06      	ldr	r3, [pc, #24]	@ (8000d7c <vPortEnterCritical+0x20>)
 8000d64:	681b      	ldr	r3, [r3, #0]
 8000d66:	1c5a      	adds	r2, r3, #1
 8000d68:	4b04      	ldr	r3, [pc, #16]	@ (8000d7c <vPortEnterCritical+0x20>)
 8000d6a:	601a      	str	r2, [r3, #0]

    /* Barriers are normally not required but do ensure the code is
     * completely within the specified behaviour for the architecture. */
    __asm volatile ( "dsb" ::: "memory" );
 8000d6c:	f3bf 8f4f 	dsb	sy
    __asm volatile ( "isb" );
 8000d70:	f3bf 8f6f 	isb	sy
}
 8000d74:	46c0      	nop			@ (mov r8, r8)
 8000d76:	46bd      	mov	sp, r7
 8000d78:	bd80      	pop	{r7, pc}
 8000d7a:	46c0      	nop			@ (mov r8, r8)
 8000d7c:	20000000 	.word	0x20000000

08000d80 <vPortExitCritical>:

/*-----------------------------------------------------------*/

void vPortExitCritical( void ) /* PRIVILEGED_FUNCTION */
{
 8000d80:	b580      	push	{r7, lr}
 8000d82:	af00      	add	r7, sp, #0
    configASSERT( ulCriticalNesting );
    ulCriticalNesting--;
 8000d84:	4b06      	ldr	r3, [pc, #24]	@ (8000da0 <vPortExitCritical+0x20>)
 8000d86:	681b      	ldr	r3, [r3, #0]
 8000d88:	1e5a      	subs	r2, r3, #1
 8000d8a:	4b05      	ldr	r3, [pc, #20]	@ (8000da0 <vPortExitCritical+0x20>)
 8000d8c:	601a      	str	r2, [r3, #0]

    if( ulCriticalNesting == 0 )
 8000d8e:	4b04      	ldr	r3, [pc, #16]	@ (8000da0 <vPortExitCritical+0x20>)
 8000d90:	681b      	ldr	r3, [r3, #0]
 8000d92:	2b00      	cmp	r3, #0
 8000d94:	d100      	bne.n	8000d98 <vPortExitCritical+0x18>
    {
        portENABLE_INTERRUPTS();
 8000d96:	b662      	cpsie	i
    }
}
 8000d98:	46c0      	nop			@ (mov r8, r8)
 8000d9a:	46bd      	mov	sp, r7
 8000d9c:	bd80      	pop	{r7, pc}
 8000d9e:	46c0      	nop			@ (mov r8, r8)
 8000da0:	20000000 	.word	0x20000000

08000da4 <SysTick_Handler>:

/*-----------------------------------------------------------*/

void SysTick_Handler( void ) /* PRIVILEGED_FUNCTION */
{
 8000da4:	b580      	push	{r7, lr}
 8000da6:	b082      	sub	sp, #8
 8000da8:	af00      	add	r7, sp, #0
    uint32_t ulPreviousMask;

    ulPreviousMask = portSET_INTERRUPT_MASK_FROM_ISR();
 8000daa:	f000 f913 	bl	8000fd4 <ulSetInterruptMask>
 8000dae:	0003      	movs	r3, r0
 8000db0:	607b      	str	r3, [r7, #4]

    traceISR_ENTER();
    {
        /* Increment the RTOS tick. */
        if( xTaskIncrementTick() != pdFALSE )
 8000db2:	f7ff fd25 	bl	8000800 <xTaskIncrementTick>
 8000db6:	1e03      	subs	r3, r0, #0
 8000db8:	d003      	beq.n	8000dc2 <SysTick_Handler+0x1e>
        {
            traceISR_EXIT_TO_SCHEDULER();
            /* Pend a context switch. */
            portNVIC_INT_CTRL_REG = portNVIC_PENDSVSET_BIT;
 8000dba:	4b06      	ldr	r3, [pc, #24]	@ (8000dd4 <SysTick_Handler+0x30>)
 8000dbc:	2280      	movs	r2, #128	@ 0x80
 8000dbe:	0552      	lsls	r2, r2, #21
 8000dc0:	601a      	str	r2, [r3, #0]
        {
            traceISR_EXIT();
        }
    }

    portCLEAR_INTERRUPT_MASK_FROM_ISR( ulPreviousMask );
 8000dc2:	687b      	ldr	r3, [r7, #4]
 8000dc4:	0018      	movs	r0, r3
 8000dc6:	f000 f90b 	bl	8000fe0 <vClearInterruptMask>
}
 8000dca:	46c0      	nop			@ (mov r8, r8)
 8000dcc:	46bd      	mov	sp, r7
 8000dce:	b002      	add	sp, #8
 8000dd0:	bd80      	pop	{r7, pc}
 8000dd2:	46c0      	nop			@ (mov r8, r8)
 8000dd4:	e000ed04 	.word	0xe000ed04

08000dd8 <vPortSVCHandler_C>:

/*-----------------------------------------------------------*/

void vPortSVCHandler_C( uint32_t * pulCallerStackAddress ) /* PRIVILEGED_FUNCTION portDONT_DISCARD */
{
 8000dd8:	b580      	push	{r7, lr}
 8000dda:	b084      	sub	sp, #16
 8000ddc:	af00      	add	r7, sp, #0
 8000dde:	6078      	str	r0, [r7, #4]
    uint32_t ulPC;
    uint8_t ucSVCNumber;

    /* Register are stored on the stack in the following order - R0, R1, R2, R3,
     * R12, LR, PC, xPSR. */
    ulPC = pulCallerStackAddress[ portOFFSET_TO_PC ];
 8000de0:	687b      	ldr	r3, [r7, #4]
 8000de2:	699b      	ldr	r3, [r3, #24]
 8000de4:	60fb      	str	r3, [r7, #12]
    ucSVCNumber = ( ( uint8_t * ) ulPC )[ -2 ];
 8000de6:	68fb      	ldr	r3, [r7, #12]
 8000de8:	3b02      	subs	r3, #2
 8000dea:	001a      	movs	r2, r3
 8000dec:	210b      	movs	r1, #11
 8000dee:	187b      	adds	r3, r7, r1
 8000df0:	7812      	ldrb	r2, [r2, #0]
 8000df2:	701a      	strb	r2, [r3, #0]

    switch( ucSVCNumber )
 8000df4:	187b      	adds	r3, r7, r1
 8000df6:	781b      	ldrb	r3, [r3, #0]
 8000df8:	2b64      	cmp	r3, #100	@ 0x64
 8000dfa:	d102      	bne.n	8000e02 <vPortSVCHandler_C+0x2a>
    {
        case portSVC_START_SCHEDULER:
            /* Setup the context of the first task so that the first task starts
             * executing. */
            vRestoreContextOfFirstTask();
 8000dfc:	f000 f8c8 	bl	8000f90 <vRestoreContextOfFirstTask>
            break;
 8000e00:	46c0      	nop			@ (mov r8, r8)

        default:
            /* Incorrect SVC call. */
            configASSERT( pdFALSE );
    }
}
 8000e02:	46c0      	nop			@ (mov r8, r8)
 8000e04:	46bd      	mov	sp, r7
 8000e06:	b004      	add	sp, #16
 8000e08:	bd80      	pop	{r7, pc}
	...

08000e0c <pxPortInitialiseStack>:
#else /* configENABLE_MPU */

    StackType_t * pxPortInitialiseStack( StackType_t * pxTopOfStack,
                                         TaskFunction_t pxCode,
                                         void * pvParameters ) /* PRIVILEGED_FUNCTION */
    {
 8000e0c:	b580      	push	{r7, lr}
 8000e0e:	b084      	sub	sp, #16
 8000e10:	af00      	add	r7, sp, #0
 8000e12:	60f8      	str	r0, [r7, #12]
 8000e14:	60b9      	str	r1, [r7, #8]
 8000e16:	607a      	str	r2, [r7, #4]
            pxTopOfStack -= 9;                                       /* R11..R4, EXC_RETURN. */
            *pxTopOfStack = portINITIAL_EXC_RETURN;
        }
        #else /* portPRELOAD_REGISTERS */
        {
            pxTopOfStack--;                                          /* Offset added to account for the way the MCU uses the stack on entry/exit of interrupts. */
 8000e18:	68fb      	ldr	r3, [r7, #12]
 8000e1a:	3b04      	subs	r3, #4
 8000e1c:	60fb      	str	r3, [r7, #12]
            *pxTopOfStack = portINITIAL_XPSR;                        /* xPSR. */
 8000e1e:	68fb      	ldr	r3, [r7, #12]
 8000e20:	2280      	movs	r2, #128	@ 0x80
 8000e22:	0452      	lsls	r2, r2, #17
 8000e24:	601a      	str	r2, [r3, #0]
            pxTopOfStack--;
 8000e26:	68fb      	ldr	r3, [r7, #12]
 8000e28:	3b04      	subs	r3, #4
 8000e2a:	60fb      	str	r3, [r7, #12]
            *pxTopOfStack = ( StackType_t ) pxCode;                  /* PC. */
 8000e2c:	68ba      	ldr	r2, [r7, #8]
 8000e2e:	68fb      	ldr	r3, [r7, #12]
 8000e30:	601a      	str	r2, [r3, #0]
            pxTopOfStack--;
 8000e32:	68fb      	ldr	r3, [r7, #12]
 8000e34:	3b04      	subs	r3, #4
 8000e36:	60fb      	str	r3, [r7, #12]
            *pxTopOfStack = ( StackType_t ) portTASK_RETURN_ADDRESS; /* LR. */
 8000e38:	4a2e      	ldr	r2, [pc, #184]	@ (8000ef4 <pxPortInitialiseStack+0xe8>)
 8000e3a:	68fb      	ldr	r3, [r7, #12]
 8000e3c:	601a      	str	r2, [r3, #0]
            pxTopOfStack--;
 8000e3e:	68fb      	ldr	r3, [r7, #12]
 8000e40:	3b04      	subs	r3, #4
 8000e42:	60fb      	str	r3, [r7, #12]
            *pxTopOfStack = ( StackType_t ) 0x12121212UL;            /* R12. */
 8000e44:	68fb      	ldr	r3, [r7, #12]
 8000e46:	4a2c      	ldr	r2, [pc, #176]	@ (8000ef8 <pxPortInitialiseStack+0xec>)
 8000e48:	601a      	str	r2, [r3, #0]
            pxTopOfStack--;
 8000e4a:	68fb      	ldr	r3, [r7, #12]
 8000e4c:	3b04      	subs	r3, #4
 8000e4e:	60fb      	str	r3, [r7, #12]
            *pxTopOfStack = ( StackType_t ) 0x03030303UL;            /* R3. */
 8000e50:	68fb      	ldr	r3, [r7, #12]
 8000e52:	4a2a      	ldr	r2, [pc, #168]	@ (8000efc <pxPortInitialiseStack+0xf0>)
 8000e54:	601a      	str	r2, [r3, #0]
            pxTopOfStack--;
 8000e56:	68fb      	ldr	r3, [r7, #12]
 8000e58:	3b04      	subs	r3, #4
 8000e5a:	60fb      	str	r3, [r7, #12]
            *pxTopOfStack = ( StackType_t ) 0x02020202UL;            /* R2. */
 8000e5c:	68fb      	ldr	r3, [r7, #12]
 8000e5e:	4a28      	ldr	r2, [pc, #160]	@ (8000f00 <pxPortInitialiseStack+0xf4>)
 8000e60:	601a      	str	r2, [r3, #0]
            pxTopOfStack--;
 8000e62:	68fb      	ldr	r3, [r7, #12]
 8000e64:	3b04      	subs	r3, #4
 8000e66:	60fb      	str	r3, [r7, #12]
            *pxTopOfStack = ( StackType_t ) 0x01010101UL;            /* R1. */
 8000e68:	68fb      	ldr	r3, [r7, #12]
 8000e6a:	4a26      	ldr	r2, [pc, #152]	@ (8000f04 <pxPortInitialiseStack+0xf8>)
 8000e6c:	601a      	str	r2, [r3, #0]
            pxTopOfStack--;
 8000e6e:	68fb      	ldr	r3, [r7, #12]
 8000e70:	3b04      	subs	r3, #4
 8000e72:	60fb      	str	r3, [r7, #12]
            *pxTopOfStack = ( StackType_t ) pvParameters;            /* R0. */
 8000e74:	687a      	ldr	r2, [r7, #4]
 8000e76:	68fb      	ldr	r3, [r7, #12]
 8000e78:	601a      	str	r2, [r3, #0]
            pxTopOfStack--;
 8000e7a:	68fb      	ldr	r3, [r7, #12]
 8000e7c:	3b04      	subs	r3, #4
 8000e7e:	60fb      	str	r3, [r7, #12]
            *pxTopOfStack = ( StackType_t ) 0x11111111UL;            /* R11. */
 8000e80:	68fb      	ldr	r3, [r7, #12]
 8000e82:	4a21      	ldr	r2, [pc, #132]	@ (8000f08 <pxPortInitialiseStack+0xfc>)
 8000e84:	601a      	str	r2, [r3, #0]
            pxTopOfStack--;
 8000e86:	68fb      	ldr	r3, [r7, #12]
 8000e88:	3b04      	subs	r3, #4
 8000e8a:	60fb      	str	r3, [r7, #12]
            *pxTopOfStack = ( StackType_t ) 0x10101010UL;            /* R10. */
 8000e8c:	68fb      	ldr	r3, [r7, #12]
 8000e8e:	4a1f      	ldr	r2, [pc, #124]	@ (8000f0c <pxPortInitialiseStack+0x100>)
 8000e90:	601a      	str	r2, [r3, #0]
            pxTopOfStack--;
 8000e92:	68fb      	ldr	r3, [r7, #12]
 8000e94:	3b04      	subs	r3, #4
 8000e96:	60fb      	str	r3, [r7, #12]
            *pxTopOfStack = ( StackType_t ) 0x09090909UL;            /* R09. */
 8000e98:	68fb      	ldr	r3, [r7, #12]
 8000e9a:	4a1d      	ldr	r2, [pc, #116]	@ (8000f10 <pxPortInitialiseStack+0x104>)
 8000e9c:	601a      	str	r2, [r3, #0]
            pxTopOfStack--;
 8000e9e:	68fb      	ldr	r3, [r7, #12]
 8000ea0:	3b04      	subs	r3, #4
 8000ea2:	60fb      	str	r3, [r7, #12]
            *pxTopOfStack = ( StackType_t ) 0x08080808UL;            /* R08. */
 8000ea4:	68fb      	ldr	r3, [r7, #12]
 8000ea6:	4a1b      	ldr	r2, [pc, #108]	@ (8000f14 <pxPortInitialiseStack+0x108>)
 8000ea8:	601a      	str	r2, [r3, #0]
            pxTopOfStack--;
 8000eaa:	68fb      	ldr	r3, [r7, #12]
 8000eac:	3b04      	subs	r3, #4
 8000eae:	60fb      	str	r3, [r7, #12]
            *pxTopOfStack = ( StackType_t ) 0x07070707UL;            /* R07. */
 8000eb0:	68fb      	ldr	r3, [r7, #12]
 8000eb2:	4a19      	ldr	r2, [pc, #100]	@ (8000f18 <pxPortInitialiseStack+0x10c>)
 8000eb4:	601a      	str	r2, [r3, #0]
            pxTopOfStack--;
 8000eb6:	68fb      	ldr	r3, [r7, #12]
 8000eb8:	3b04      	subs	r3, #4
 8000eba:	60fb      	str	r3, [r7, #12]
            *pxTopOfStack = ( StackType_t ) 0x06060606UL;            /* R06. */
 8000ebc:	68fb      	ldr	r3, [r7, #12]
 8000ebe:	4a17      	ldr	r2, [pc, #92]	@ (8000f1c <pxPortInitialiseStack+0x110>)
 8000ec0:	601a      	str	r2, [r3, #0]
            pxTopOfStack--;
 8000ec2:	68fb      	ldr	r3, [r7, #12]
 8000ec4:	3b04      	subs	r3, #4
 8000ec6:	60fb      	str	r3, [r7, #12]
            *pxTopOfStack = ( StackType_t ) 0x05050505UL;            /* R05. */
 8000ec8:	68fb      	ldr	r3, [r7, #12]
 8000eca:	4a15      	ldr	r2, [pc, #84]	@ (8000f20 <pxPortInitialiseStack+0x114>)
 8000ecc:	601a      	str	r2, [r3, #0]
            pxTopOfStack--;
 8000ece:	68fb      	ldr	r3, [r7, #12]
 8000ed0:	3b04      	subs	r3, #4
 8000ed2:	60fb      	str	r3, [r7, #12]
            *pxTopOfStack = ( StackType_t ) 0x04040404UL;            /* R04. */
 8000ed4:	68fb      	ldr	r3, [r7, #12]
 8000ed6:	4a13      	ldr	r2, [pc, #76]	@ (8000f24 <pxPortInitialiseStack+0x118>)
 8000ed8:	601a      	str	r2, [r3, #0]
            pxTopOfStack--;
 8000eda:	68fb      	ldr	r3, [r7, #12]
 8000edc:	3b04      	subs	r3, #4
 8000ede:	60fb      	str	r3, [r7, #12]
            *pxTopOfStack = portINITIAL_EXC_RETURN;                  /* EXC_RETURN. */
 8000ee0:	68fb      	ldr	r3, [r7, #12]
 8000ee2:	2203      	movs	r2, #3
 8000ee4:	4252      	negs	r2, r2
 8000ee6:	601a      	str	r2, [r3, #0]
        }
        #endif /* portPRELOAD_REGISTERS */

        return pxTopOfStack;
 8000ee8:	68fb      	ldr	r3, [r7, #12]
    }
 8000eea:	0018      	movs	r0, r3
 8000eec:	46bd      	mov	sp, r7
 8000eee:	b004      	add	sp, #16
 8000ef0:	bd80      	pop	{r7, pc}
 8000ef2:	46c0      	nop			@ (mov r8, r8)
 8000ef4:	08000d1d 	.word	0x08000d1d
 8000ef8:	12121212 	.word	0x12121212
 8000efc:	03030303 	.word	0x03030303
 8000f00:	02020202 	.word	0x02020202
 8000f04:	01010101 	.word	0x01010101
 8000f08:	11111111 	.word	0x11111111
 8000f0c:	10101010 	.word	0x10101010
 8000f10:	09090909 	.word	0x09090909
 8000f14:	08080808 	.word	0x08080808
 8000f18:	07070707 	.word	0x07070707
 8000f1c:	06060606 	.word	0x06060606
 8000f20:	05050505 	.word	0x05050505
 8000f24:	04040404 	.word	0x04040404

08000f28 <xPortStartScheduler>:
#endif /* configENABLE_MPU */

/*-----------------------------------------------------------*/

BaseType_t xPortStartScheduler( void ) /* PRIVILEGED_FUNCTION */
{
 8000f28:	b580      	push	{r7, lr}
 8000f2a:	b082      	sub	sp, #8
 8000f2c:	af00      	add	r7, sp, #0
     * configCHECK_HANDLER_INSTALLATION to 0 in their FreeRTOSConfig.h. Direct
     * routing, which is validated here when configCHECK_HANDLER_INSTALLATION
     * is 1, should be preferred when possible. */
    #if ( configCHECK_HANDLER_INSTALLATION == 1 )
    {
        const portISR_t * const pxVectorTable = portSCB_VTOR_REG;
 8000f2e:	4b12      	ldr	r3, [pc, #72]	@ (8000f78 <xPortStartScheduler+0x50>)
 8000f30:	681b      	ldr	r3, [r3, #0]
 8000f32:	607b      	str	r3, [r7, #4]
    }
    #endif /* configCHECK_HANDLER_INSTALLATION */

    /* Make PendSV and SysTick the lowest priority interrupts, and make SVCall
     * the highest priority. */
    portNVIC_SHPR3_REG |= portNVIC_PENDSV_PRI;
 8000f34:	4b11      	ldr	r3, [pc, #68]	@ (8000f7c <xPortStartScheduler+0x54>)
 8000f36:	681a      	ldr	r2, [r3, #0]
 8000f38:	4b10      	ldr	r3, [pc, #64]	@ (8000f7c <xPortStartScheduler+0x54>)
 8000f3a:	21ff      	movs	r1, #255	@ 0xff
 8000f3c:	0409      	lsls	r1, r1, #16
 8000f3e:	430a      	orrs	r2, r1
 8000f40:	601a      	str	r2, [r3, #0]
    portNVIC_SHPR3_REG |= portNVIC_SYSTICK_PRI;
 8000f42:	4b0e      	ldr	r3, [pc, #56]	@ (8000f7c <xPortStartScheduler+0x54>)
 8000f44:	681a      	ldr	r2, [r3, #0]
 8000f46:	4b0d      	ldr	r3, [pc, #52]	@ (8000f7c <xPortStartScheduler+0x54>)
 8000f48:	21ff      	movs	r1, #255	@ 0xff
 8000f4a:	0609      	lsls	r1, r1, #24
 8000f4c:	430a      	orrs	r2, r1
 8000f4e:	601a      	str	r2, [r3, #0]
    portNVIC_SHPR2_REG = 0;
 8000f50:	4b0b      	ldr	r3, [pc, #44]	@ (8000f80 <xPortStartScheduler+0x58>)
 8000f52:	2200      	movs	r2, #0
 8000f54:	601a      	str	r2, [r3, #0]
    }
    #endif /* configENABLE_MPU */

    /* Start the timer that generates the tick ISR. Interrupts are disabled
     * here already. */
    vPortSetupTimerInterrupt();
 8000f56:	f7ff fec7 	bl	8000ce8 <vPortSetupTimerInterrupt>

    /* Initialize the critical nesting count ready for the first task. */
    ulCriticalNesting = 0;
 8000f5a:	4b0a      	ldr	r3, [pc, #40]	@ (8000f84 <xPortStartScheduler+0x5c>)
 8000f5c:	2200      	movs	r2, #0
 8000f5e:	601a      	str	r2, [r3, #0]
        xSchedulerRunning = pdTRUE;
    }
    #endif

    /* Start the first task. */
    vStartFirstTask();
 8000f60:	f000 f82e 	bl	8000fc0 <vStartFirstTask>
     * exit error function to prevent compiler warnings about a static function
     * not being called in the case that the application writer overrides this
     * functionality by defining configTASK_RETURN_ADDRESS. Call
     * vTaskSwitchContext() so link time optimization does not remove the
     * symbol. */
    vTaskSwitchContext();
 8000f64:	f7ff fd52 	bl	8000a0c <vTaskSwitchContext>
    prvTaskExitError();
 8000f68:	f7ff fed8 	bl	8000d1c <prvTaskExitError>

    /* Should not get here. */
    return 0;
 8000f6c:	2300      	movs	r3, #0
}
 8000f6e:	0018      	movs	r0, r3
 8000f70:	46bd      	mov	sp, r7
 8000f72:	b002      	add	sp, #8
 8000f74:	bd80      	pop	{r7, pc}
 8000f76:	46c0      	nop			@ (mov r8, r8)
 8000f78:	e000ed08 	.word	0xe000ed08
 8000f7c:	e000ed20 	.word	0xe000ed20
 8000f80:	e000ed1c 	.word	0xe000ed1c
 8000f84:	20000000 	.word	0x20000000
	...

08000f90 <vRestoreContextOfFirstTask>:

#else /* configENABLE_MPU */

    void vRestoreContextOfFirstTask( void ) /* __attribute__ (( naked )) PRIVILEGED_FUNCTION */
    {
        __asm volatile
 8000f90:	4a08      	ldr	r2, [pc, #32]	@ (8000fb4 <vRestoreContextOfFirstTask+0x24>)
 8000f92:	6811      	ldr	r1, [r2, #0]
 8000f94:	6808      	ldr	r0, [r1, #0]
 8000f96:	c804      	ldmia	r0!, {r2}
 8000f98:	2102      	movs	r1, #2
 8000f9a:	f381 8814 	msr	CONTROL, r1
 8000f9e:	3020      	adds	r0, #32
 8000fa0:	f380 8809 	msr	PSP, r0
 8000fa4:	f3bf 8f6f 	isb	sy
 8000fa8:	4710      	bx	r2
 8000faa:	46c0      	nop			@ (mov r8, r8)
 8000fac:	46c0      	nop			@ (mov r8, r8)
 8000fae:	46c0      	nop			@ (mov r8, r8)
            " isb                                             \n"
            " bx   r2                                         \n" /* Finally, branch to EXC_RETURN. */
            "                                                 \n"
            " .align 4                                        \n"
        );
    }
 8000fb0:	46c0      	nop			@ (mov r8, r8)
 8000fb2:	0000      	.short	0x0000
 8000fb4:	20000020 	.word	0x20000020
	...

08000fc0 <vStartFirstTask>:
void vStartFirstTask( void ) /* __attribute__ (( naked )) PRIVILEGED_FUNCTION */
{
    /* Don't reset the MSP stack as is done on CM3/4 devices. The reason is that
     * the Vector Table Offset Register (VTOR) is optional in CM0+ architecture
     * and therefore, may not be available on all the devices. */
    __asm volatile
 8000fc0:	b662      	cpsie	i
 8000fc2:	f3bf 8f4f 	dsb	sy
 8000fc6:	f3bf 8f6f 	isb	sy
 8000fca:	df64      	svc	100	@ 0x64
 8000fcc:	46c0      	nop			@ (mov r8, r8)
 8000fce:	46c0      	nop			@ (mov r8, r8)
        " nop                                             \n"
        "                                                 \n"
        " .align 4                                        \n"
        ::"i" ( portSVC_START_SCHEDULER ) : "memory"
    );
}
 8000fd0:	46c0      	nop			@ (mov r8, r8)
 8000fd2:	46c0      	nop			@ (mov r8, r8)

08000fd4 <ulSetInterruptMask>:

/*-----------------------------------------------------------*/

uint32_t ulSetInterruptMask( void ) /* __attribute__(( naked )) PRIVILEGED_FUNCTION */
{
    __asm volatile
 8000fd4:	f3ef 8010 	mrs	r0, PRIMASK
 8000fd8:	b672      	cpsid	i
 8000fda:	4770      	bx	lr
        " mrs r0, PRIMASK                                 \n"
        " cpsid i                                         \n"
        " bx lr                                           \n"
        ::: "memory"
    );
}
 8000fdc:	46c0      	nop			@ (mov r8, r8)
 8000fde:	0018      	movs	r0, r3

08000fe0 <vClearInterruptMask>:

/*-----------------------------------------------------------*/

void vClearInterruptMask( __attribute__( ( unused ) ) uint32_t ulMask ) /* __attribute__(( naked )) PRIVILEGED_FUNCTION */
{
    __asm volatile
 8000fe0:	f380 8810 	msr	PRIMASK, r0
 8000fe4:	4770      	bx	lr
        "                                                 \n"
        " msr PRIMASK, r0                                 \n"
        " bx lr                                           \n"
        ::: "memory"
    );
}
 8000fe6:	46c0      	nop			@ (mov r8, r8)
	...

08000ff0 <PendSV_Handler>:

#else /* configENABLE_MPU */

    void PendSV_Handler( void ) /* __attribute__ (( naked )) PRIVILEGED_FUNCTION */
    {
        __asm volatile
 8000ff0:	f3ef 8009 	mrs	r0, PSP
 8000ff4:	4a0f      	ldr	r2, [pc, #60]	@ (8001034 <PendSV_Handler+0x44>)
 8000ff6:	6811      	ldr	r1, [r2, #0]
 8000ff8:	3824      	subs	r0, #36	@ 0x24
 8000ffa:	6008      	str	r0, [r1, #0]
 8000ffc:	4673      	mov	r3, lr
 8000ffe:	c0f8      	stmia	r0!, {r3, r4, r5, r6, r7}
 8001000:	4644      	mov	r4, r8
 8001002:	464d      	mov	r5, r9
 8001004:	4656      	mov	r6, sl
 8001006:	465f      	mov	r7, fp
 8001008:	c0f0      	stmia	r0!, {r4, r5, r6, r7}
 800100a:	b672      	cpsid	i
 800100c:	f7ff fcfe 	bl	8000a0c <vTaskSwitchContext>
 8001010:	b662      	cpsie	i
 8001012:	4a08      	ldr	r2, [pc, #32]	@ (8001034 <PendSV_Handler+0x44>)
 8001014:	6811      	ldr	r1, [r2, #0]
 8001016:	6808      	ldr	r0, [r1, #0]
 8001018:	3014      	adds	r0, #20
 800101a:	c8f0      	ldmia	r0!, {r4, r5, r6, r7}
 800101c:	46a0      	mov	r8, r4
 800101e:	46a9      	mov	r9, r5
 8001020:	46b2      	mov	sl, r6
 8001022:	46bb      	mov	fp, r7
 8001024:	f380 8809 	msr	PSP, r0
 8001028:	3824      	subs	r0, #36	@ 0x24
 800102a:	c8f8      	ldmia	r0!, {r3, r4, r5, r6, r7}
 800102c:	4718      	bx	r3
 800102e:	46c0      	nop			@ (mov r8, r8)
            " ldmia r0!, {r3-r7}                              \n" /* Read from stack - r3 = LR and r4-r7 restored. */
            " bx r3                                           \n"
            "                                                 \n"
            " .align 4                                        \n"
        );
    }
 8001030:	46c0      	nop			@ (mov r8, r8)
 8001032:	0000      	.short	0x0000
 8001034:	20000020 	.word	0x20000020
	...

08001040 <SVC_Handler>:

#else /* ( configENABLE_MPU == 1 ) && ( configUSE_MPU_WRAPPERS_V1 == 0 ) */

    void SVC_Handler( void ) /* __attribute__ (( naked )) PRIVILEGED_FUNCTION */
    {
        __asm volatile
 8001040:	2004      	movs	r0, #4
 8001042:	4671      	mov	r1, lr
 8001044:	4208      	tst	r0, r1
 8001046:	d003      	beq.n	8001050 <stacking_used_msp>

08001048 <stacking_used_psp>:
 8001048:	f3ef 8009 	mrs	r0, PSP
 800104c:	4b05      	ldr	r3, [pc, #20]	@ (8001064 <stacking_used_msp+0x14>)
 800104e:	4718      	bx	r3

08001050 <stacking_used_msp>:
 8001050:	f3ef 8008 	mrs	r0, MSP
 8001054:	4b03      	ldr	r3, [pc, #12]	@ (8001064 <stacking_used_msp+0x14>)
 8001056:	4718      	bx	r3
 8001058:	46c0      	nop			@ (mov r8, r8)
 800105a:	46c0      	nop			@ (mov r8, r8)
 800105c:	46c0      	nop			@ (mov r8, r8)
 800105e:	46c0      	nop			@ (mov r8, r8)
            "    ldr r3, =vPortSVCHandler_C  \n"
            "    bx r3                       \n"
            "                                \n"
            " .align 4                       \n"
        );
    }
 8001060:	46c0      	nop			@ (mov r8, r8)
 8001062:	0000      	.short	0x0000
 8001064:	08000dd9 	.word	0x08000dd9

08001068 <pvPortMalloc>:
PRIVILEGED_DATA static size_t xNumberOfSuccessfulFrees = ( size_t ) 0U;

/*-----------------------------------------------------------*/

void * pvPortMalloc( size_t xWantedSize )
{
 8001068:	b580      	push	{r7, lr}
 800106a:	b088      	sub	sp, #32
 800106c:	af00      	add	r7, sp, #0
 800106e:	6078      	str	r0, [r7, #4]
    BlockLink_t * pxBlock;
    BlockLink_t * pxPreviousBlock;
    BlockLink_t * pxNewBlockLink;
    void * pvReturn = NULL;
 8001070:	2300      	movs	r3, #0
 8001072:	617b      	str	r3, [r7, #20]
    size_t xAdditionalRequiredSize;
    size_t xAllocatedBlockSize = 0;
 8001074:	2300      	movs	r3, #0
 8001076:	613b      	str	r3, [r7, #16]

    if( xWantedSize > 0 )
 8001078:	687b      	ldr	r3, [r7, #4]
 800107a:	2b00      	cmp	r3, #0
 800107c:	d021      	beq.n	80010c2 <pvPortMalloc+0x5a>
    {
        /* The wanted size must be increased so it can contain a BlockLink_t
         * structure in addition to the requested amount of bytes. */
        if( heapADD_WILL_OVERFLOW( xWantedSize, xHeapStructSize ) == 0 )
 800107e:	2308      	movs	r3, #8
 8001080:	43db      	mvns	r3, r3
 8001082:	687a      	ldr	r2, [r7, #4]
 8001084:	429a      	cmp	r2, r3
 8001086:	d81a      	bhi.n	80010be <pvPortMalloc+0x56>
        {
            xWantedSize += xHeapStructSize;
 8001088:	2208      	movs	r2, #8
 800108a:	687b      	ldr	r3, [r7, #4]
 800108c:	189b      	adds	r3, r3, r2
 800108e:	607b      	str	r3, [r7, #4]

            /* Ensure that blocks are always aligned to the required number
             * of bytes. */
            if( ( xWantedSize & portBYTE_ALIGNMENT_MASK ) != 0x00 )
 8001090:	687b      	ldr	r3, [r7, #4]
 8001092:	2207      	movs	r2, #7
 8001094:	4013      	ands	r3, r2
 8001096:	d014      	beq.n	80010c2 <pvPortMalloc+0x5a>
            {
                /* Byte alignment required. */
                xAdditionalRequiredSize = portBYTE_ALIGNMENT - ( xWantedSize & portBYTE_ALIGNMENT_MASK );
 8001098:	687b      	ldr	r3, [r7, #4]
 800109a:	2207      	movs	r2, #7
 800109c:	4013      	ands	r3, r2
 800109e:	2208      	movs	r2, #8
 80010a0:	1ad3      	subs	r3, r2, r3
 80010a2:	60fb      	str	r3, [r7, #12]

                if( heapADD_WILL_OVERFLOW( xWantedSize, xAdditionalRequiredSize ) == 0 )
 80010a4:	68fb      	ldr	r3, [r7, #12]
 80010a6:	43db      	mvns	r3, r3
 80010a8:	687a      	ldr	r2, [r7, #4]
 80010aa:	429a      	cmp	r2, r3
 80010ac:	d804      	bhi.n	80010b8 <pvPortMalloc+0x50>
                {
                    xWantedSize += xAdditionalRequiredSize;
 80010ae:	687a      	ldr	r2, [r7, #4]
 80010b0:	68fb      	ldr	r3, [r7, #12]
 80010b2:	18d3      	adds	r3, r2, r3
 80010b4:	607b      	str	r3, [r7, #4]
 80010b6:	e004      	b.n	80010c2 <pvPortMalloc+0x5a>
                }
                else
                {
                    xWantedSize = 0;
 80010b8:	2300      	movs	r3, #0
 80010ba:	607b      	str	r3, [r7, #4]
 80010bc:	e001      	b.n	80010c2 <pvPortMalloc+0x5a>
                mtCOVERAGE_TEST_MARKER();
            }
        }
        else
        {
            xWantedSize = 0;
 80010be:	2300      	movs	r3, #0
 80010c0:	607b      	str	r3, [r7, #4]
    else
    {
        mtCOVERAGE_TEST_MARKER();
    }

    vTaskSuspendAll();
 80010c2:	f7ff faa3 	bl	800060c <vTaskSuspendAll>
    {
        /* If this is the first call to malloc then the heap will require
         * initialisation to setup the list of free blocks. */
        if( pxEnd == NULL )
 80010c6:	4b3c      	ldr	r3, [pc, #240]	@ (80011b8 <pvPortMalloc+0x150>)
 80010c8:	681b      	ldr	r3, [r3, #0]
 80010ca:	2b00      	cmp	r3, #0
 80010cc:	d101      	bne.n	80010d2 <pvPortMalloc+0x6a>
        {
            prvHeapInit();
 80010ce:	f000 f8b7 	bl	8001240 <prvHeapInit>

        /* Check the block size we are trying to allocate is not so large that the
         * top bit is set.  The top bit of the block size member of the BlockLink_t
         * structure is used to determine who owns the block - the application or
         * the kernel, so it must be free. */
        if( heapBLOCK_SIZE_IS_VALID( xWantedSize ) != 0 )
 80010d2:	687b      	ldr	r3, [r7, #4]
 80010d4:	2b00      	cmp	r3, #0
 80010d6:	db68      	blt.n	80011aa <pvPortMalloc+0x142>
        {
            if( ( xWantedSize > 0 ) && ( xWantedSize <= xFreeBytesRemaining ) )
 80010d8:	687b      	ldr	r3, [r7, #4]
 80010da:	2b00      	cmp	r3, #0
 80010dc:	d065      	beq.n	80011aa <pvPortMalloc+0x142>
 80010de:	4b37      	ldr	r3, [pc, #220]	@ (80011bc <pvPortMalloc+0x154>)
 80010e0:	681b      	ldr	r3, [r3, #0]
 80010e2:	687a      	ldr	r2, [r7, #4]
 80010e4:	429a      	cmp	r2, r3
 80010e6:	d860      	bhi.n	80011aa <pvPortMalloc+0x142>
            {
                /* Traverse the list from the start (lowest address) block until
                 * one of adequate size is found. */
                pxPreviousBlock = &xStart;
 80010e8:	4b35      	ldr	r3, [pc, #212]	@ (80011c0 <pvPortMalloc+0x158>)
 80010ea:	61bb      	str	r3, [r7, #24]
                pxBlock = heapPROTECT_BLOCK_POINTER( xStart.pxNextFreeBlock );
 80010ec:	4b34      	ldr	r3, [pc, #208]	@ (80011c0 <pvPortMalloc+0x158>)
 80010ee:	681b      	ldr	r3, [r3, #0]
 80010f0:	61fb      	str	r3, [r7, #28]
                heapVALIDATE_BLOCK_POINTER( pxBlock );

                while( ( pxBlock->xBlockSize < xWantedSize ) && ( pxBlock->pxNextFreeBlock != heapPROTECT_BLOCK_POINTER( NULL ) ) )
 80010f2:	e004      	b.n	80010fe <pvPortMalloc+0x96>
                {
                    pxPreviousBlock = pxBlock;
 80010f4:	69fb      	ldr	r3, [r7, #28]
 80010f6:	61bb      	str	r3, [r7, #24]
                    pxBlock = heapPROTECT_BLOCK_POINTER( pxBlock->pxNextFreeBlock );
 80010f8:	69fb      	ldr	r3, [r7, #28]
 80010fa:	681b      	ldr	r3, [r3, #0]
 80010fc:	61fb      	str	r3, [r7, #28]
                while( ( pxBlock->xBlockSize < xWantedSize ) && ( pxBlock->pxNextFreeBlock != heapPROTECT_BLOCK_POINTER( NULL ) ) )
 80010fe:	69fb      	ldr	r3, [r7, #28]
 8001100:	685b      	ldr	r3, [r3, #4]
 8001102:	687a      	ldr	r2, [r7, #4]
 8001104:	429a      	cmp	r2, r3
 8001106:	d903      	bls.n	8001110 <pvPortMalloc+0xa8>
 8001108:	69fb      	ldr	r3, [r7, #28]
 800110a:	681b      	ldr	r3, [r3, #0]
 800110c:	2b00      	cmp	r3, #0
 800110e:	d1f1      	bne.n	80010f4 <pvPortMalloc+0x8c>
                    heapVALIDATE_BLOCK_POINTER( pxBlock );
                }

                /* If the end marker was reached then a block of adequate size
                 * was not found. */
                if( pxBlock != pxEnd )
 8001110:	4b29      	ldr	r3, [pc, #164]	@ (80011b8 <pvPortMalloc+0x150>)
 8001112:	681b      	ldr	r3, [r3, #0]
 8001114:	69fa      	ldr	r2, [r7, #28]
 8001116:	429a      	cmp	r2, r3
 8001118:	d047      	beq.n	80011aa <pvPortMalloc+0x142>
                {
                    /* Return the memory space pointed to - jumping over the
                     * BlockLink_t structure at its start. */
                    pvReturn = ( void * ) ( ( ( uint8_t * ) heapPROTECT_BLOCK_POINTER( pxPreviousBlock->pxNextFreeBlock ) ) + xHeapStructSize );
 800111a:	69bb      	ldr	r3, [r7, #24]
 800111c:	681b      	ldr	r3, [r3, #0]
 800111e:	2208      	movs	r2, #8
 8001120:	189b      	adds	r3, r3, r2
 8001122:	617b      	str	r3, [r7, #20]
                    heapVALIDATE_BLOCK_POINTER( pvReturn );

                    /* This block is being returned for use so must be taken out
                     * of the list of free blocks. */
                    pxPreviousBlock->pxNextFreeBlock = pxBlock->pxNextFreeBlock;
 8001124:	69fb      	ldr	r3, [r7, #28]
 8001126:	681a      	ldr	r2, [r3, #0]
 8001128:	69bb      	ldr	r3, [r7, #24]
 800112a:	601a      	str	r2, [r3, #0]

                    /* If the block is larger than required it can be split into
                     * two. */
                    configASSERT( heapSUBTRACT_WILL_UNDERFLOW( pxBlock->xBlockSize, xWantedSize ) == 0 );

                    if( ( pxBlock->xBlockSize - xWantedSize ) > heapMINIMUM_BLOCK_SIZE )
 800112c:	69fb      	ldr	r3, [r7, #28]
 800112e:	685a      	ldr	r2, [r3, #4]
 8001130:	687b      	ldr	r3, [r7, #4]
 8001132:	1ad2      	subs	r2, r2, r3
 8001134:	2308      	movs	r3, #8
 8001136:	005b      	lsls	r3, r3, #1
 8001138:	429a      	cmp	r2, r3
 800113a:	d913      	bls.n	8001164 <pvPortMalloc+0xfc>
                    {
                        /* This block is to be split into two.  Create a new
                         * block following the number of bytes requested. The void
                         * cast is used to prevent byte alignment warnings from the
                         * compiler. */
                        pxNewBlockLink = ( void * ) ( ( ( uint8_t * ) pxBlock ) + xWantedSize );
 800113c:	69fa      	ldr	r2, [r7, #28]
 800113e:	687b      	ldr	r3, [r7, #4]
 8001140:	18d3      	adds	r3, r2, r3
 8001142:	60bb      	str	r3, [r7, #8]
                        configASSERT( ( ( ( size_t ) pxNewBlockLink ) & portBYTE_ALIGNMENT_MASK ) == 0 );

                        /* Calculate the sizes of two blocks split from the
                         * single block. */
                        pxNewBlockLink->xBlockSize = pxBlock->xBlockSize - xWantedSize;
 8001144:	69fb      	ldr	r3, [r7, #28]
 8001146:	685a      	ldr	r2, [r3, #4]
 8001148:	687b      	ldr	r3, [r7, #4]
 800114a:	1ad2      	subs	r2, r2, r3
 800114c:	68bb      	ldr	r3, [r7, #8]
 800114e:	605a      	str	r2, [r3, #4]
                        pxBlock->xBlockSize = xWantedSize;
 8001150:	69fb      	ldr	r3, [r7, #28]
 8001152:	687a      	ldr	r2, [r7, #4]
 8001154:	605a      	str	r2, [r3, #4]

                        /* Insert the new block into the list of free blocks. */
                        pxNewBlockLink->pxNextFreeBlock = pxPreviousBlock->pxNextFreeBlock;
 8001156:	69bb      	ldr	r3, [r7, #24]
 8001158:	681a      	ldr	r2, [r3, #0]
 800115a:	68bb      	ldr	r3, [r7, #8]
 800115c:	601a      	str	r2, [r3, #0]
                        pxPreviousBlock->pxNextFreeBlock = heapPROTECT_BLOCK_POINTER( pxNewBlockLink );
 800115e:	69bb      	ldr	r3, [r7, #24]
 8001160:	68ba      	ldr	r2, [r7, #8]
 8001162:	601a      	str	r2, [r3, #0]
                    else
                    {
                        mtCOVERAGE_TEST_MARKER();
                    }

                    xFreeBytesRemaining -= pxBlock->xBlockSize;
 8001164:	4b15      	ldr	r3, [pc, #84]	@ (80011bc <pvPortMalloc+0x154>)
 8001166:	681a      	ldr	r2, [r3, #0]
 8001168:	69fb      	ldr	r3, [r7, #28]
 800116a:	685b      	ldr	r3, [r3, #4]
 800116c:	1ad2      	subs	r2, r2, r3
 800116e:	4b13      	ldr	r3, [pc, #76]	@ (80011bc <pvPortMalloc+0x154>)
 8001170:	601a      	str	r2, [r3, #0]

                    if( xFreeBytesRemaining < xMinimumEverFreeBytesRemaining )
 8001172:	4b12      	ldr	r3, [pc, #72]	@ (80011bc <pvPortMalloc+0x154>)
 8001174:	681a      	ldr	r2, [r3, #0]
 8001176:	4b13      	ldr	r3, [pc, #76]	@ (80011c4 <pvPortMalloc+0x15c>)
 8001178:	681b      	ldr	r3, [r3, #0]
 800117a:	429a      	cmp	r2, r3
 800117c:	d203      	bcs.n	8001186 <pvPortMalloc+0x11e>
                    {
                        xMinimumEverFreeBytesRemaining = xFreeBytesRemaining;
 800117e:	4b0f      	ldr	r3, [pc, #60]	@ (80011bc <pvPortMalloc+0x154>)
 8001180:	681a      	ldr	r2, [r3, #0]
 8001182:	4b10      	ldr	r3, [pc, #64]	@ (80011c4 <pvPortMalloc+0x15c>)
 8001184:	601a      	str	r2, [r3, #0]
                    else
                    {
                        mtCOVERAGE_TEST_MARKER();
                    }

                    xAllocatedBlockSize = pxBlock->xBlockSize;
 8001186:	69fb      	ldr	r3, [r7, #28]
 8001188:	685b      	ldr	r3, [r3, #4]
 800118a:	613b      	str	r3, [r7, #16]

                    /* The block is being returned - it is allocated and owned
                     * by the application and has no "next" block. */
                    heapALLOCATE_BLOCK( pxBlock );
 800118c:	69fb      	ldr	r3, [r7, #28]
 800118e:	685b      	ldr	r3, [r3, #4]
 8001190:	2280      	movs	r2, #128	@ 0x80
 8001192:	0612      	lsls	r2, r2, #24
 8001194:	431a      	orrs	r2, r3
 8001196:	69fb      	ldr	r3, [r7, #28]
 8001198:	605a      	str	r2, [r3, #4]
                    pxBlock->pxNextFreeBlock = heapPROTECT_BLOCK_POINTER( NULL );
 800119a:	69fb      	ldr	r3, [r7, #28]
 800119c:	2200      	movs	r2, #0
 800119e:	601a      	str	r2, [r3, #0]
                    xNumberOfSuccessfulAllocations++;
 80011a0:	4b09      	ldr	r3, [pc, #36]	@ (80011c8 <pvPortMalloc+0x160>)
 80011a2:	681b      	ldr	r3, [r3, #0]
 80011a4:	1c5a      	adds	r2, r3, #1
 80011a6:	4b08      	ldr	r3, [pc, #32]	@ (80011c8 <pvPortMalloc+0x160>)
 80011a8:	601a      	str	r2, [r3, #0]
        traceMALLOC( pvReturn, xAllocatedBlockSize );

        /* Prevent compiler warnings when trace macros are not used. */
        ( void ) xAllocatedBlockSize;
    }
    ( void ) xTaskResumeAll();
 80011aa:	f7ff fa3b 	bl	8000624 <xTaskResumeAll>
        }
    }
    #endif /* if ( configUSE_MALLOC_FAILED_HOOK == 1 ) */

    configASSERT( ( ( ( size_t ) pvReturn ) & ( size_t ) portBYTE_ALIGNMENT_MASK ) == 0 );
    return pvReturn;
 80011ae:	697b      	ldr	r3, [r7, #20]
}
 80011b0:	0018      	movs	r0, r3
 80011b2:	46bd      	mov	sp, r7
 80011b4:	b008      	add	sp, #32
 80011b6:	bd80      	pop	{r7, pc}
 80011b8:	20000d2c 	.word	0x20000d2c
 80011bc:	20000d30 	.word	0x20000d30
 80011c0:	20000d24 	.word	0x20000d24
 80011c4:	20000d34 	.word	0x20000d34
 80011c8:	20000d38 	.word	0x20000d38

080011cc <vPortFree>:
/*-----------------------------------------------------------*/

void vPortFree( void * pv )
{
 80011cc:	b580      	push	{r7, lr}
 80011ce:	b084      	sub	sp, #16
 80011d0:	af00      	add	r7, sp, #0
 80011d2:	6078      	str	r0, [r7, #4]
    uint8_t * puc = ( uint8_t * ) pv;
 80011d4:	687b      	ldr	r3, [r7, #4]
 80011d6:	60fb      	str	r3, [r7, #12]
    BlockLink_t * pxLink;

    if( pv != NULL )
 80011d8:	687b      	ldr	r3, [r7, #4]
 80011da:	2b00      	cmp	r3, #0
 80011dc:	d028      	beq.n	8001230 <vPortFree+0x64>
    {
        /* The memory being freed will have an BlockLink_t structure immediately
         * before it. */
        puc -= xHeapStructSize;
 80011de:	2308      	movs	r3, #8
 80011e0:	425b      	negs	r3, r3
 80011e2:	68fa      	ldr	r2, [r7, #12]
 80011e4:	18d3      	adds	r3, r2, r3
 80011e6:	60fb      	str	r3, [r7, #12]

        /* This casting is to keep the compiler from issuing warnings. */
        pxLink = ( void * ) puc;
 80011e8:	68fb      	ldr	r3, [r7, #12]
 80011ea:	60bb      	str	r3, [r7, #8]

        heapVALIDATE_BLOCK_POINTER( pxLink );
        configASSERT( heapBLOCK_IS_ALLOCATED( pxLink ) != 0 );
        configASSERT( pxLink->pxNextFreeBlock == heapPROTECT_BLOCK_POINTER( NULL ) );

        if( heapBLOCK_IS_ALLOCATED( pxLink ) != 0 )
 80011ec:	68bb      	ldr	r3, [r7, #8]
 80011ee:	685b      	ldr	r3, [r3, #4]
 80011f0:	2b00      	cmp	r3, #0
 80011f2:	da1d      	bge.n	8001230 <vPortFree+0x64>
        {
            if( pxLink->pxNextFreeBlock == heapPROTECT_BLOCK_POINTER( NULL ) )
 80011f4:	68bb      	ldr	r3, [r7, #8]
 80011f6:	681b      	ldr	r3, [r3, #0]
 80011f8:	2b00      	cmp	r3, #0
 80011fa:	d119      	bne.n	8001230 <vPortFree+0x64>
            {
                /* The block is being returned to the heap - it is no longer
                 * allocated. */
                heapFREE_BLOCK( pxLink );
 80011fc:	68bb      	ldr	r3, [r7, #8]
 80011fe:	685b      	ldr	r3, [r3, #4]
 8001200:	005b      	lsls	r3, r3, #1
 8001202:	085a      	lsrs	r2, r3, #1
 8001204:	68bb      	ldr	r3, [r7, #8]
 8001206:	605a      	str	r2, [r3, #4]
                        ( void ) memset( puc + xHeapStructSize, 0, pxLink->xBlockSize - xHeapStructSize );
                    }
                }
                #endif

                vTaskSuspendAll();
 8001208:	f7ff fa00 	bl	800060c <vTaskSuspendAll>
                {
                    /* Add this block to the list of free blocks. */
                    xFreeBytesRemaining += pxLink->xBlockSize;
 800120c:	68bb      	ldr	r3, [r7, #8]
 800120e:	685a      	ldr	r2, [r3, #4]
 8001210:	4b09      	ldr	r3, [pc, #36]	@ (8001238 <vPortFree+0x6c>)
 8001212:	681b      	ldr	r3, [r3, #0]
 8001214:	18d2      	adds	r2, r2, r3
 8001216:	4b08      	ldr	r3, [pc, #32]	@ (8001238 <vPortFree+0x6c>)
 8001218:	601a      	str	r2, [r3, #0]
                    traceFREE( pv, pxLink->xBlockSize );
                    prvInsertBlockIntoFreeList( ( ( BlockLink_t * ) pxLink ) );
 800121a:	68bb      	ldr	r3, [r7, #8]
 800121c:	0018      	movs	r0, r3
 800121e:	f000 f867 	bl	80012f0 <prvInsertBlockIntoFreeList>
                    xNumberOfSuccessfulFrees++;
 8001222:	4b06      	ldr	r3, [pc, #24]	@ (800123c <vPortFree+0x70>)
 8001224:	681b      	ldr	r3, [r3, #0]
 8001226:	1c5a      	adds	r2, r3, #1
 8001228:	4b04      	ldr	r3, [pc, #16]	@ (800123c <vPortFree+0x70>)
 800122a:	601a      	str	r2, [r3, #0]
                }
                ( void ) xTaskResumeAll();
 800122c:	f7ff f9fa 	bl	8000624 <xTaskResumeAll>
        else
        {
            mtCOVERAGE_TEST_MARKER();
        }
    }
}
 8001230:	46c0      	nop			@ (mov r8, r8)
 8001232:	46bd      	mov	sp, r7
 8001234:	b004      	add	sp, #16
 8001236:	bd80      	pop	{r7, pc}
 8001238:	20000d30 	.word	0x20000d30
 800123c:	20000d3c 	.word	0x20000d3c

08001240 <prvHeapInit>:
    return pv;
}
/*-----------------------------------------------------------*/

static void prvHeapInit( void ) /* PRIVILEGED_FUNCTION */
{
 8001240:	b580      	push	{r7, lr}
 8001242:	b084      	sub	sp, #16
 8001244:	af00      	add	r7, sp, #0
    BlockLink_t * pxFirstFreeBlock;
    portPOINTER_SIZE_TYPE uxStartAddress, uxEndAddress;
    size_t xTotalHeapSize = configTOTAL_HEAP_SIZE;
 8001246:	23c0      	movs	r3, #192	@ 0xc0
 8001248:	011b      	lsls	r3, r3, #4
 800124a:	60bb      	str	r3, [r7, #8]

    /* Ensure the heap starts on a correctly aligned boundary. */
    uxStartAddress = ( portPOINTER_SIZE_TYPE ) ucHeap;
 800124c:	4b23      	ldr	r3, [pc, #140]	@ (80012dc <prvHeapInit+0x9c>)
 800124e:	60fb      	str	r3, [r7, #12]

    if( ( uxStartAddress & portBYTE_ALIGNMENT_MASK ) != 0 )
 8001250:	68fb      	ldr	r3, [r7, #12]
 8001252:	2207      	movs	r2, #7
 8001254:	4013      	ands	r3, r2
 8001256:	d00c      	beq.n	8001272 <prvHeapInit+0x32>
    {
        uxStartAddress += ( portBYTE_ALIGNMENT - 1 );
 8001258:	68fb      	ldr	r3, [r7, #12]
 800125a:	3307      	adds	r3, #7
 800125c:	60fb      	str	r3, [r7, #12]
        uxStartAddress &= ~( ( portPOINTER_SIZE_TYPE ) portBYTE_ALIGNMENT_MASK );
 800125e:	68fb      	ldr	r3, [r7, #12]
 8001260:	2207      	movs	r2, #7
 8001262:	4393      	bics	r3, r2
 8001264:	60fb      	str	r3, [r7, #12]
        xTotalHeapSize -= ( size_t ) ( uxStartAddress - ( portPOINTER_SIZE_TYPE ) ucHeap );
 8001266:	68ba      	ldr	r2, [r7, #8]
 8001268:	68fb      	ldr	r3, [r7, #12]
 800126a:	1ad2      	subs	r2, r2, r3
 800126c:	4b1b      	ldr	r3, [pc, #108]	@ (80012dc <prvHeapInit+0x9c>)
 800126e:	18d3      	adds	r3, r2, r3
 8001270:	60bb      	str	r3, [r7, #8]
    }
    #endif

    /* xStart is used to hold a pointer to the first item in the list of free
     * blocks.  The void cast is used to prevent compiler warnings. */
    xStart.pxNextFreeBlock = ( void * ) heapPROTECT_BLOCK_POINTER( uxStartAddress );
 8001272:	68fa      	ldr	r2, [r7, #12]
 8001274:	4b1a      	ldr	r3, [pc, #104]	@ (80012e0 <prvHeapInit+0xa0>)
 8001276:	601a      	str	r2, [r3, #0]
    xStart.xBlockSize = ( size_t ) 0;
 8001278:	4b19      	ldr	r3, [pc, #100]	@ (80012e0 <prvHeapInit+0xa0>)
 800127a:	2200      	movs	r2, #0
 800127c:	605a      	str	r2, [r3, #4]

    /* pxEnd is used to mark the end of the list of free blocks and is inserted
     * at the end of the heap space. */
    uxEndAddress = uxStartAddress + ( portPOINTER_SIZE_TYPE ) xTotalHeapSize;
 800127e:	68fa      	ldr	r2, [r7, #12]
 8001280:	68bb      	ldr	r3, [r7, #8]
 8001282:	18d3      	adds	r3, r2, r3
 8001284:	607b      	str	r3, [r7, #4]
    uxEndAddress -= ( portPOINTER_SIZE_TYPE ) xHeapStructSize;
 8001286:	2208      	movs	r2, #8
 8001288:	687b      	ldr	r3, [r7, #4]
 800128a:	1a9b      	subs	r3, r3, r2
 800128c:	607b      	str	r3, [r7, #4]
    uxEndAddress &= ~( ( portPOINTER_SIZE_TYPE ) portBYTE_ALIGNMENT_MASK );
 800128e:	687b      	ldr	r3, [r7, #4]
 8001290:	2207      	movs	r2, #7
 8001292:	4393      	bics	r3, r2
 8001294:	607b      	str	r3, [r7, #4]
    pxEnd = ( BlockLink_t * ) uxEndAddress;
 8001296:	687a      	ldr	r2, [r7, #4]
 8001298:	4b12      	ldr	r3, [pc, #72]	@ (80012e4 <prvHeapInit+0xa4>)
 800129a:	601a      	str	r2, [r3, #0]
    pxEnd->xBlockSize = 0;
 800129c:	4b11      	ldr	r3, [pc, #68]	@ (80012e4 <prvHeapInit+0xa4>)
 800129e:	681b      	ldr	r3, [r3, #0]
 80012a0:	2200      	movs	r2, #0
 80012a2:	605a      	str	r2, [r3, #4]
    pxEnd->pxNextFreeBlock = heapPROTECT_BLOCK_POINTER( NULL );
 80012a4:	4b0f      	ldr	r3, [pc, #60]	@ (80012e4 <prvHeapInit+0xa4>)
 80012a6:	681b      	ldr	r3, [r3, #0]
 80012a8:	2200      	movs	r2, #0
 80012aa:	601a      	str	r2, [r3, #0]

    /* To start with there is a single free block that is sized to take up the
     * entire heap space, minus the space taken by pxEnd. */
    pxFirstFreeBlock = ( BlockLink_t * ) uxStartAddress;
 80012ac:	68fb      	ldr	r3, [r7, #12]
 80012ae:	603b      	str	r3, [r7, #0]
    pxFirstFreeBlock->xBlockSize = ( size_t ) ( uxEndAddress - ( portPOINTER_SIZE_TYPE ) pxFirstFreeBlock );
 80012b0:	683b      	ldr	r3, [r7, #0]
 80012b2:	687a      	ldr	r2, [r7, #4]
 80012b4:	1ad2      	subs	r2, r2, r3
 80012b6:	683b      	ldr	r3, [r7, #0]
 80012b8:	605a      	str	r2, [r3, #4]
    pxFirstFreeBlock->pxNextFreeBlock = heapPROTECT_BLOCK_POINTER( pxEnd );
 80012ba:	4b0a      	ldr	r3, [pc, #40]	@ (80012e4 <prvHeapInit+0xa4>)
 80012bc:	681a      	ldr	r2, [r3, #0]
 80012be:	683b      	ldr	r3, [r7, #0]
 80012c0:	601a      	str	r2, [r3, #0]

    /* Only one block exists - and it covers the entire usable heap space. */
    xMinimumEverFreeBytesRemaining = pxFirstFreeBlock->xBlockSize;
 80012c2:	683b      	ldr	r3, [r7, #0]
 80012c4:	685a      	ldr	r2, [r3, #4]
 80012c6:	4b08      	ldr	r3, [pc, #32]	@ (80012e8 <prvHeapInit+0xa8>)
 80012c8:	601a      	str	r2, [r3, #0]
    xFreeBytesRemaining = pxFirstFreeBlock->xBlockSize;
 80012ca:	683b      	ldr	r3, [r7, #0]
 80012cc:	685a      	ldr	r2, [r3, #4]
 80012ce:	4b07      	ldr	r3, [pc, #28]	@ (80012ec <prvHeapInit+0xac>)
 80012d0:	601a      	str	r2, [r3, #0]
}
 80012d2:	46c0      	nop			@ (mov r8, r8)
 80012d4:	46bd      	mov	sp, r7
 80012d6:	b004      	add	sp, #16
 80012d8:	bd80      	pop	{r7, pc}
 80012da:	46c0      	nop			@ (mov r8, r8)
 80012dc:	20000124 	.word	0x20000124
 80012e0:	20000d24 	.word	0x20000d24
 80012e4:	20000d2c 	.word	0x20000d2c
 80012e8:	20000d34 	.word	0x20000d34
 80012ec:	20000d30 	.word	0x20000d30

080012f0 <prvInsertBlockIntoFreeList>:
/*-----------------------------------------------------------*/

static void prvInsertBlockIntoFreeList( BlockLink_t * pxBlockToInsert ) /* PRIVILEGED_FUNCTION */
{
 80012f0:	b580      	push	{r7, lr}
 80012f2:	b084      	sub	sp, #16
 80012f4:	af00      	add	r7, sp, #0
 80012f6:	6078      	str	r0, [r7, #4]
    BlockLink_t * pxIterator;
    uint8_t * puc;

    /* Iterate through the list until a block is found that has a higher address
     * than the block being inserted. */
    for( pxIterator = &xStart; heapPROTECT_BLOCK_POINTER( pxIterator->pxNextFreeBlock ) < pxBlockToInsert; pxIterator = heapPROTECT_BLOCK_POINTER( pxIterator->pxNextFreeBlock ) )
 80012f8:	4b27      	ldr	r3, [pc, #156]	@ (8001398 <prvInsertBlockIntoFreeList+0xa8>)
 80012fa:	60fb      	str	r3, [r7, #12]
 80012fc:	e002      	b.n	8001304 <prvInsertBlockIntoFreeList+0x14>
 80012fe:	68fb      	ldr	r3, [r7, #12]
 8001300:	681b      	ldr	r3, [r3, #0]
 8001302:	60fb      	str	r3, [r7, #12]
 8001304:	68fb      	ldr	r3, [r7, #12]
 8001306:	681b      	ldr	r3, [r3, #0]
 8001308:	687a      	ldr	r2, [r7, #4]
 800130a:	429a      	cmp	r2, r3
 800130c:	d8f7      	bhi.n	80012fe <prvInsertBlockIntoFreeList+0xe>
        heapVALIDATE_BLOCK_POINTER( pxIterator );
    }

    /* Do the block being inserted, and the block it is being inserted after
     * make a contiguous block of memory? */
    puc = ( uint8_t * ) pxIterator;
 800130e:	68fb      	ldr	r3, [r7, #12]
 8001310:	60bb      	str	r3, [r7, #8]

    if( ( puc + pxIterator->xBlockSize ) == ( uint8_t * ) pxBlockToInsert )
 8001312:	68fb      	ldr	r3, [r7, #12]
 8001314:	685b      	ldr	r3, [r3, #4]
 8001316:	68ba      	ldr	r2, [r7, #8]
 8001318:	18d3      	adds	r3, r2, r3
 800131a:	687a      	ldr	r2, [r7, #4]
 800131c:	429a      	cmp	r2, r3
 800131e:	d108      	bne.n	8001332 <prvInsertBlockIntoFreeList+0x42>
    {
        pxIterator->xBlockSize += pxBlockToInsert->xBlockSize;
 8001320:	68fb      	ldr	r3, [r7, #12]
 8001322:	685a      	ldr	r2, [r3, #4]
 8001324:	687b      	ldr	r3, [r7, #4]
 8001326:	685b      	ldr	r3, [r3, #4]
 8001328:	18d2      	adds	r2, r2, r3
 800132a:	68fb      	ldr	r3, [r7, #12]
 800132c:	605a      	str	r2, [r3, #4]
        pxBlockToInsert = pxIterator;
 800132e:	68fb      	ldr	r3, [r7, #12]
 8001330:	607b      	str	r3, [r7, #4]
        mtCOVERAGE_TEST_MARKER();
    }

    /* Do the block being inserted, and the block it is being inserted before
     * make a contiguous block of memory? */
    puc = ( uint8_t * ) pxBlockToInsert;
 8001332:	687b      	ldr	r3, [r7, #4]
 8001334:	60bb      	str	r3, [r7, #8]

    if( ( puc + pxBlockToInsert->xBlockSize ) == ( uint8_t * ) heapPROTECT_BLOCK_POINTER( pxIterator->pxNextFreeBlock ) )
 8001336:	687b      	ldr	r3, [r7, #4]
 8001338:	685b      	ldr	r3, [r3, #4]
 800133a:	68ba      	ldr	r2, [r7, #8]
 800133c:	18d2      	adds	r2, r2, r3
 800133e:	68fb      	ldr	r3, [r7, #12]
 8001340:	681b      	ldr	r3, [r3, #0]
 8001342:	429a      	cmp	r2, r3
 8001344:	d118      	bne.n	8001378 <prvInsertBlockIntoFreeList+0x88>
    {
        if( heapPROTECT_BLOCK_POINTER( pxIterator->pxNextFreeBlock ) != pxEnd )
 8001346:	68fb      	ldr	r3, [r7, #12]
 8001348:	681a      	ldr	r2, [r3, #0]
 800134a:	4b14      	ldr	r3, [pc, #80]	@ (800139c <prvInsertBlockIntoFreeList+0xac>)
 800134c:	681b      	ldr	r3, [r3, #0]
 800134e:	429a      	cmp	r2, r3
 8001350:	d00d      	beq.n	800136e <prvInsertBlockIntoFreeList+0x7e>
        {
            /* Form one big block from the two blocks. */
            pxBlockToInsert->xBlockSize += heapPROTECT_BLOCK_POINTER( pxIterator->pxNextFreeBlock )->xBlockSize;
 8001352:	687b      	ldr	r3, [r7, #4]
 8001354:	685a      	ldr	r2, [r3, #4]
 8001356:	68fb      	ldr	r3, [r7, #12]
 8001358:	681b      	ldr	r3, [r3, #0]
 800135a:	685b      	ldr	r3, [r3, #4]
 800135c:	18d2      	adds	r2, r2, r3
 800135e:	687b      	ldr	r3, [r7, #4]
 8001360:	605a      	str	r2, [r3, #4]
            pxBlockToInsert->pxNextFreeBlock = heapPROTECT_BLOCK_POINTER( pxIterator->pxNextFreeBlock )->pxNextFreeBlock;
 8001362:	68fb      	ldr	r3, [r7, #12]
 8001364:	681b      	ldr	r3, [r3, #0]
 8001366:	681a      	ldr	r2, [r3, #0]
 8001368:	687b      	ldr	r3, [r7, #4]
 800136a:	601a      	str	r2, [r3, #0]
 800136c:	e008      	b.n	8001380 <prvInsertBlockIntoFreeList+0x90>
        }
        else
        {
            pxBlockToInsert->pxNextFreeBlock = heapPROTECT_BLOCK_POINTER( pxEnd );
 800136e:	4b0b      	ldr	r3, [pc, #44]	@ (800139c <prvInsertBlockIntoFreeList+0xac>)
 8001370:	681a      	ldr	r2, [r3, #0]
 8001372:	687b      	ldr	r3, [r7, #4]
 8001374:	601a      	str	r2, [r3, #0]
 8001376:	e003      	b.n	8001380 <prvInsertBlockIntoFreeList+0x90>
        }
    }
    else
    {
        pxBlockToInsert->pxNextFreeBlock = pxIterator->pxNextFreeBlock;
 8001378:	68fb      	ldr	r3, [r7, #12]
 800137a:	681a      	ldr	r2, [r3, #0]
 800137c:	687b      	ldr	r3, [r7, #4]
 800137e:	601a      	str	r2, [r3, #0]

    /* If the block being inserted plugged a gap, so was merged with the block
     * before and the block after, then it's pxNextFreeBlock pointer will have
     * already been set, and should not be set here as that would make it point
     * to itself. */
    if( pxIterator != pxBlockToInsert )
 8001380:	68fa      	ldr	r2, [r7, #12]
 8001382:	687b      	ldr	r3, [r7, #4]
 8001384:	429a      	cmp	r2, r3
 8001386:	d002      	beq.n	800138e <prvInsertBlockIntoFreeList+0x9e>
    {
        pxIterator->pxNextFreeBlock = heapPROTECT_BLOCK_POINTER( pxBlockToInsert );
 8001388:	68fb      	ldr	r3, [r7, #12]
 800138a:	687a      	ldr	r2, [r7, #4]
 800138c:	601a      	str	r2, [r3, #0]
    }
    else
    {
        mtCOVERAGE_TEST_MARKER();
    }
}
 800138e:	46c0      	nop			@ (mov r8, r8)
 8001390:	46bd      	mov	sp, r7
 8001392:	b004      	add	sp, #16
 8001394:	bd80      	pop	{r7, pc}
 8001396:	46c0      	nop			@ (mov r8, r8)
 8001398:	20000d24 	.word	0x20000d24
 800139c:	20000d2c 	.word	0x20000d2c

080013a0 <BLINK_INIT>:
#define LED_OUT_CLR (0b11 << 10)
#define LED_ON 		(1U << 5)
#define LED_OFF 	(1U << 21)


void BLINK_INIT (){
 80013a0:	b580      	push	{r7, lr}
 80013a2:	af00      	add	r7, sp, #0

	RCC->IOPENR |= GPIO_A;
 80013a4:	4b0c      	ldr	r3, [pc, #48]	@ (80013d8 <BLINK_INIT+0x38>)
 80013a6:	6b5a      	ldr	r2, [r3, #52]	@ 0x34
 80013a8:	4b0b      	ldr	r3, [pc, #44]	@ (80013d8 <BLINK_INIT+0x38>)
 80013aa:	2101      	movs	r1, #1
 80013ac:	430a      	orrs	r2, r1
 80013ae:	635a      	str	r2, [r3, #52]	@ 0x34
	GPIOA->MODER &= ~LED_OUT_CLR;
 80013b0:	23a0      	movs	r3, #160	@ 0xa0
 80013b2:	05db      	lsls	r3, r3, #23
 80013b4:	681a      	ldr	r2, [r3, #0]
 80013b6:	23a0      	movs	r3, #160	@ 0xa0
 80013b8:	05db      	lsls	r3, r3, #23
 80013ba:	4908      	ldr	r1, [pc, #32]	@ (80013dc <BLINK_INIT+0x3c>)
 80013bc:	400a      	ands	r2, r1
 80013be:	601a      	str	r2, [r3, #0]
	GPIOA->MODER |= LED_OUT;
 80013c0:	23a0      	movs	r3, #160	@ 0xa0
 80013c2:	05db      	lsls	r3, r3, #23
 80013c4:	681a      	ldr	r2, [r3, #0]
 80013c6:	23a0      	movs	r3, #160	@ 0xa0
 80013c8:	05db      	lsls	r3, r3, #23
 80013ca:	2180      	movs	r1, #128	@ 0x80
 80013cc:	00c9      	lsls	r1, r1, #3
 80013ce:	430a      	orrs	r2, r1
 80013d0:	601a      	str	r2, [r3, #0]
}
 80013d2:	46c0      	nop			@ (mov r8, r8)
 80013d4:	46bd      	mov	sp, r7
 80013d6:	bd80      	pop	{r7, pc}
 80013d8:	40021000 	.word	0x40021000
 80013dc:	fffff3ff 	.word	0xfffff3ff

080013e0 <blink_rtos>:

void blink_rtos (void *params){
 80013e0:	b580      	push	{r7, lr}
 80013e2:	b082      	sub	sp, #8
 80013e4:	af00      	add	r7, sp, #0
 80013e6:	6078      	str	r0, [r7, #4]

	for(;;){
		GPIOA->BSRR = LED_ON; //pa5 SET
 80013e8:	23a0      	movs	r3, #160	@ 0xa0
 80013ea:	05db      	lsls	r3, r3, #23
 80013ec:	2220      	movs	r2, #32
 80013ee:	619a      	str	r2, [r3, #24]
        vTaskDelay(pdMS_TO_TICKS(500));
 80013f0:	23fa      	movs	r3, #250	@ 0xfa
 80013f2:	005b      	lsls	r3, r3, #1
 80013f4:	0018      	movs	r0, r3
 80013f6:	f7ff f86d 	bl	80004d4 <vTaskDelay>
        GPIOA->BSRR = LED_OFF;
 80013fa:	23a0      	movs	r3, #160	@ 0xa0
 80013fc:	05db      	lsls	r3, r3, #23
 80013fe:	2280      	movs	r2, #128	@ 0x80
 8001400:	0392      	lsls	r2, r2, #14
 8001402:	619a      	str	r2, [r3, #24]
        vTaskDelay(pdMS_TO_TICKS(500));
 8001404:	23fa      	movs	r3, #250	@ 0xfa
 8001406:	005b      	lsls	r3, r3, #1
 8001408:	0018      	movs	r0, r3
 800140a:	f7ff f863 	bl	80004d4 <vTaskDelay>
		GPIOA->BSRR = LED_ON; //pa5 SET
 800140e:	46c0      	nop			@ (mov r8, r8)
 8001410:	e7ea      	b.n	80013e8 <blink_rtos+0x8>
	...

08001414 <main>:
	}
}


int main(void)
{
 8001414:	b580      	push	{r7, lr}
 8001416:	b082      	sub	sp, #8
 8001418:	af02      	add	r7, sp, #8
BLINK_INIT ();
 800141a:	f7ff ffc1 	bl	80013a0 <BLINK_INIT>
xTaskCreate(blink_rtos, "blink", 128, NULL, 1, NULL);
 800141e:	4907      	ldr	r1, [pc, #28]	@ (800143c <main+0x28>)
 8001420:	4807      	ldr	r0, [pc, #28]	@ (8001440 <main+0x2c>)
 8001422:	2300      	movs	r3, #0
 8001424:	9301      	str	r3, [sp, #4]
 8001426:	2301      	movs	r3, #1
 8001428:	9300      	str	r3, [sp, #0]
 800142a:	2300      	movs	r3, #0
 800142c:	2280      	movs	r2, #128	@ 0x80
 800142e:	f7fe ff33 	bl	8000298 <xTaskCreate>

vTaskStartScheduler();
 8001432:	f7ff f8c5 	bl	80005c0 <vTaskStartScheduler>

//SYS_CLK_CONFIG();

	while (1){
 8001436:	46c0      	nop			@ (mov r8, r8)
 8001438:	e7fd      	b.n	8001436 <main+0x22>
 800143a:	46c0      	nop			@ (mov r8, r8)
 800143c:	08001510 	.word	0x08001510
 8001440:	080013e1 	.word	0x080013e1

08001444 <Reset_Handler>:
*/

  .section .text.Reset_Handler
  .weak Reset_Handler
  .type Reset_Handler, %function
Reset_Handler:  ldr   r0, =_estack
 8001444:	480d      	ldr	r0, [pc, #52]	@ (800147c <LoopForever+0x2>)
  mov   sp, r0          /* set stack pointer */
 8001446:	4685      	mov	sp, r0
/* Call the clock system initialization function.*/
  bl  SystemInit
 8001448:	e000      	b.n	800144c <Reset_Handler+0x8>
 800144a:	bf00      	nop

/* Copy the data segment initializers from flash to SRAM */
  ldr r0, =_sdata
 800144c:	480c      	ldr	r0, [pc, #48]	@ (8001480 <LoopForever+0x6>)
  ldr r1, =_edata
 800144e:	490d      	ldr	r1, [pc, #52]	@ (8001484 <LoopForever+0xa>)
  ldr r2, =_sidata
 8001450:	4a0d      	ldr	r2, [pc, #52]	@ (8001488 <LoopForever+0xe>)
  movs r3, #0
 8001452:	2300      	movs	r3, #0
  b LoopCopyDataInit
 8001454:	e002      	b.n	800145c <LoopCopyDataInit>

08001456 <CopyDataInit>:

CopyDataInit:
  ldr r4, [r2, r3]
 8001456:	58d4      	ldr	r4, [r2, r3]
  str r4, [r0, r3]
 8001458:	50c4      	str	r4, [r0, r3]
  adds r3, r3, #4
 800145a:	3304      	adds	r3, #4

0800145c <LoopCopyDataInit>:

LoopCopyDataInit:
  adds r4, r0, r3
 800145c:	18c4      	adds	r4, r0, r3
  cmp r4, r1
 800145e:	428c      	cmp	r4, r1
  bcc CopyDataInit
 8001460:	d3f9      	bcc.n	8001456 <CopyDataInit>

/* Zero fill the bss segment. */
  ldr r2, =_sbss
 8001462:	4a0a      	ldr	r2, [pc, #40]	@ (800148c <LoopForever+0x12>)
  ldr r4, =_ebss
 8001464:	4c0a      	ldr	r4, [pc, #40]	@ (8001490 <LoopForever+0x16>)
  movs r3, #0
 8001466:	2300      	movs	r3, #0
  b LoopFillZerobss
 8001468:	e001      	b.n	800146e <LoopFillZerobss>

0800146a <FillZerobss>:

FillZerobss:
  str  r3, [r2]
 800146a:	6013      	str	r3, [r2, #0]
  adds r2, r2, #4
 800146c:	3204      	adds	r2, #4

0800146e <LoopFillZerobss>:

LoopFillZerobss:
  cmp r2, r4
 800146e:	42a2      	cmp	r2, r4
  bcc FillZerobss
 8001470:	d3fb      	bcc.n	800146a <FillZerobss>


/* Call static constructors */
  bl __libc_init_array
 8001472:	f000 f819 	bl	80014a8 <__libc_init_array>
/* Call the application's entry point.*/

  bl main
 8001476:	f7ff ffcd 	bl	8001414 <main>

0800147a <LoopForever>:

LoopForever:
  b LoopForever
 800147a:	e7fe      	b.n	800147a <LoopForever>
Reset_Handler:  ldr   r0, =_estack
 800147c:	20003000 	.word	0x20003000
  ldr r0, =_sdata
 8001480:	20000000 	.word	0x20000000
  ldr r1, =_edata
 8001484:	20000004 	.word	0x20000004
  ldr r2, =_sidata
 8001488:	08001524 	.word	0x08001524
  ldr r2, =_sbss
 800148c:	20000004 	.word	0x20000004
  ldr r4, =_ebss
 8001490:	20000d40 	.word	0x20000d40

08001494 <ADC_IRQHandler>:
 * @retval : None
*/
  .section .text.Default_Handler,"ax",%progbits
Default_Handler:
Infinite_Loop:
  b Infinite_Loop
 8001494:	e7fe      	b.n	8001494 <ADC_IRQHandler>

08001496 <memset>:
 8001496:	0003      	movs	r3, r0
 8001498:	1882      	adds	r2, r0, r2
 800149a:	4293      	cmp	r3, r2
 800149c:	d100      	bne.n	80014a0 <memset+0xa>
 800149e:	4770      	bx	lr
 80014a0:	7019      	strb	r1, [r3, #0]
 80014a2:	3301      	adds	r3, #1
 80014a4:	e7f9      	b.n	800149a <memset+0x4>
	...

080014a8 <__libc_init_array>:
 80014a8:	b570      	push	{r4, r5, r6, lr}
 80014aa:	2600      	movs	r6, #0
 80014ac:	4c0c      	ldr	r4, [pc, #48]	@ (80014e0 <__libc_init_array+0x38>)
 80014ae:	4d0d      	ldr	r5, [pc, #52]	@ (80014e4 <__libc_init_array+0x3c>)
 80014b0:	1b64      	subs	r4, r4, r5
 80014b2:	10a4      	asrs	r4, r4, #2
 80014b4:	42a6      	cmp	r6, r4
 80014b6:	d109      	bne.n	80014cc <__libc_init_array+0x24>
 80014b8:	2600      	movs	r6, #0
 80014ba:	f000 f819 	bl	80014f0 <_init>
 80014be:	4c0a      	ldr	r4, [pc, #40]	@ (80014e8 <__libc_init_array+0x40>)
 80014c0:	4d0a      	ldr	r5, [pc, #40]	@ (80014ec <__libc_init_array+0x44>)
 80014c2:	1b64      	subs	r4, r4, r5
 80014c4:	10a4      	asrs	r4, r4, #2
 80014c6:	42a6      	cmp	r6, r4
 80014c8:	d105      	bne.n	80014d6 <__libc_init_array+0x2e>
 80014ca:	bd70      	pop	{r4, r5, r6, pc}
 80014cc:	00b3      	lsls	r3, r6, #2
 80014ce:	58eb      	ldr	r3, [r5, r3]
 80014d0:	4798      	blx	r3
 80014d2:	3601      	adds	r6, #1
 80014d4:	e7ee      	b.n	80014b4 <__libc_init_array+0xc>
 80014d6:	00b3      	lsls	r3, r6, #2
 80014d8:	58eb      	ldr	r3, [r5, r3]
 80014da:	4798      	blx	r3
 80014dc:	3601      	adds	r6, #1
 80014de:	e7f2      	b.n	80014c6 <__libc_init_array+0x1e>
 80014e0:	0800151c 	.word	0x0800151c
 80014e4:	0800151c 	.word	0x0800151c
 80014e8:	08001520 	.word	0x08001520
 80014ec:	0800151c 	.word	0x0800151c

080014f0 <_init>:
 80014f0:	b5f8      	push	{r3, r4, r5, r6, r7, lr}
 80014f2:	46c0      	nop			@ (mov r8, r8)
 80014f4:	bcf8      	pop	{r3, r4, r5, r6, r7}
 80014f6:	bc08      	pop	{r3}
 80014f8:	469e      	mov	lr, r3
 80014fa:	4770      	bx	lr

080014fc <_fini>:
 80014fc:	b5f8      	push	{r3, r4, r5, r6, r7, lr}
 80014fe:	46c0      	nop			@ (mov r8, r8)
 8001500:	bcf8      	pop	{r3, r4, r5, r6, r7}
 8001502:	bc08      	pop	{r3}
 8001504:	469e      	mov	lr, r3
 8001506:	4770      	bx	lr
